cnltk.probability
FreqDist
p0
((dp1
(I2554
tp2
I2
s(I544
tp3
I125
s(I3607
tp4
I3
s(I5219
tp5
I1
s(I2814
tp6
I3
s(I1828
tp7
I11
s(I4170
tp8
I3
s(I779
tp9
I69
s(I4082
tp10
I2
s(I-333
tp11
I1
s(I5454
tp12
I1
s(I3033
tp13
I2
s(I1039
tp14
I25
s(I246
tp15
I628
s(I3293
tp16
I4
s(I-98
tp17
I73
s(I4649
tp18
I1
s(I2244
tp19
I5
s(I1514
tp20
I10
s(I465
tp21
I157
s(I3512
tp22
I2
s(I1774
tp23
I9
s(I2479
tp24
I7
s(I725
tp25
I66
s(I3772
tp26
I1
s(I2723
tp27
I3
s(I1993
tp28
I13
s(I944
tp29
I43
s(I4007
tp30
I2
s(I-168
tp31
I16
s(I2958
tp32
I5
s(I1204
tp33
I19
s(I155
tp34
I1642
s(I3202
tp35
I1
s(I2409
tp36
I6
s(I1439
tp37
I13
s(I390
tp38
I226
s(I2669
tp39
I2
s(I1683
tp40
I11
s(I890
tp41
I48
s(I3937
tp42
I2
s(I2888
tp43
I5
s(I1150
tp44
I24
s(I101
tp45
I3844
s(I-243
tp46
I3
s(I2099
tp47
I9
s(I1369
tp48
I21
s(I320
tp49
I362
s(I3383
tp50
I4
s(I1629
tp51
I9
s(I4739
tp52
I1
s(I2334
tp53
I6
s(I580
tp54
I118
s(I3627
tp55
I3
s(I2578
tp56
I4
s(I1848
tp57
I14
s(I4206
tp58
I4
s(I815
tp59
I36
s(I3069
tp60
I4
s(I1059
tp61
I25
s(I4425
tp62
I1
s(I10
tp63
I443144
s(I3313
tp64
I2
s(I-78
tp65
I202
s(I4685
tp66
I1
s(I2264
tp67
I3
s(I1294
tp68
I17
s(I501
tp69
I124
s(I1538
tp70
I13
s(I2499
tp71
I3
s(I745
tp72
I66
s(I2759
tp73
I2
s(I2029
tp74
I8
s(I4115
tp75
I3
s(I980
tp76
I23
s(I-132
tp77
I27
s(I2978
tp78
I2
s(I1224
tp79
I22
s(I4606
tp80
I2
s(I191
tp81
I1028
s(I3238
tp82
I1
s(I4850
tp83
I2
s(I2189
tp84
I3
s(I1459
tp85
I15
s(I410
tp86
I192
s(I3457
tp87
I2
s(I1719
tp88
I9
s(I5085
tp89
I1
s(I670
tp90
I79
s(I3717
tp91
I5
s(I2924
tp92
I1
s(I1938
tp93
I9
s(I4280
tp94
I2
s(I121
tp95
I2704
s(I3168
tp96
I4
s(I-223
tp97
I3
s(I5564
tp98
I1
s(I2135
tp99
I4
s(I1405
tp100
I18
s(I356
tp101
I258
s(I3403
tp102
I4
s(I1649
tp103
I13
s(I2354
tp104
I3
s(I600
tp105
I97
s(I3663
tp106
I3
s(I2614
tp107
I4
s(I1884
tp108
I7
s(I4994
tp109
I1
s(I835
tp110
I51
s(I3882
tp111
I3
s(I-277
tp112
I2
s(I2833
tp113
I1
s(I1095
tp114
I27
s(I46
tp115
I19804
s(I3093
tp116
I3
s(I-42
tp117
I1262
s(I2300
tp118
I4
s(I1314
tp119
I13
s(I265
tp120
I530
s(I3568
tp121
I1
s(I1574
tp122
I17
s(I2535
tp123
I6
s(I525
tp124
I128
s(I3828
tp125
I2
s(I2779
tp126
I1
s(I1793
tp127
I9
s(I4151
tp128
I1
s(I1000
tp129
I31
s(I4063
tp130
I1
s(I-368
tp131
I1
s(I3014
tp132
I5
s(I1260
tp133
I27
s(I4370
tp134
I2
s(I211
tp135
I851
s(I4630
tp136
I2
s(I2209
tp137
I4
s(I1495
tp138
I7
s(I446
tp139
I156
s(I3493
tp140
I3
s(I1739
tp141
I18
s(I2444
tp142
I1
s(I690
tp143
I66
s(I3737
tp144
I2
s(I-422
tp145
I1
s(I2688
tp146
I4
s(I1974
tp147
I10
s(I925
tp148
I44
s(I3972
tp149
I2
s(I-187
tp150
I7
s(I2155
tp151
I6
s(I1169
tp152
I32
s(I4551
tp153
I1
s(I376
tp154
I247
s(I2390
tp155
I2
s(I636
tp156
I93
s(I3683
tp157
I2
s(I2634
tp158
I6
s(I1904
tp159
I8
s(I871
tp160
I45
s(I3918
tp161
I3
s(I5274
tp162
I1
s(I2869
tp163
I8
s(I1115
tp164
I27
s(I4225
tp165
I1
s(I66
tp166
I9545
s(I3113
tp167
I1
s(I-22
tp168
I7332
s(I2064
tp169
I7
s(I1350
tp170
I23
s(I301
tp171
I378
s(I3348
tp172
I2
s(I1594
tp173
I8
s(I2555
tp174
I4
s(I545
tp175
I115
s(I3592
tp176
I1
s(I5220
tp177
I1
s(I2815
tp178
I4
s(I1829
tp179
I10
s(I4171
tp180
I1
s(I780
tp181
I44
s(I4083
tp182
I1
s(I-332
tp183
I1
s(I3034
tp184
I3
s(I1024
tp185
I30
s(I4406
tp186
I1
s(I247
tp187
I614
s(I5699
tp188
I1
s(I3294
tp189
I4
s(I-97
tp190
I95
s(I2245
tp191
I5
s(I1515
tp192
I19
s(I466
tp193
I155
s(I3513
tp194
I1
s(I1775
tp195
I13
s(I2464
tp196
I6
s(I726
tp197
I58
s(I3773
tp198
I2
s(I-386
tp199
I2
s(I2724
tp200
I2
s(I1994
tp201
I9
s(I945
tp202
I45
s(I-167
tp203
I17
s(I1205
tp204
I23
s(I4571
tp205
I1
s(I156
tp206
I1635
s(I3203
tp207
I2
s(I4831
tp208
I1
s(I2410
tp209
I2
s(I1424
tp210
I16
s(I391
tp211
I220
s(I2670
tp212
I6
s(I1684
tp213
I9
s(I891
tp214
I49
s(I3938
tp215
I2
s(I2889
tp216
I2
s(I1151
tp217
I27
s(I4261
tp218
I2
s(I102
tp219
I3661
s(I3149
tp220
I6
s(I-242
tp221
I7
s(I2100
tp222
I2
s(I1370
tp223
I14
s(I4480
tp224
I2
s(I321
tp225
I359
s(I3368
tp226
I3
s(I1630
tp227
I6
s(I4740
tp228
I2
s(I2335
tp229
I6
s(I581
tp230
I92
s(I3628
tp231
I2
s(I2579
tp232
I1
s(I1849
tp233
I7
s(I800
tp234
I48
s(I3863
tp235
I6
s(I-312
tp236
I1
s(I3070
tp237
I5
s(I1060
tp238
I27
s(I4426
tp239
I3
s(I11
tp240
I366393
s(I3314
tp241
I3
s(I-77
tp242
I185
s(I4686
tp243
I1
s(I2265
tp244
I6
s(I1295
tp245
I22
s(I502
tp246
I136
s(I3549
tp247
I1
s(I1539
tp248
I14
s(I-866
tp249
I1
s(I2500
tp250
I5
s(I746
tp251
I72
s(I3793
tp252
I1
s(I2744
tp253
I5
s(I2030
tp254
I8
s(I4116
tp255
I2
s(I981
tp256
I34
s(I4028
tp257
I1
s(I-131
tp258
I36
s(I2979
tp259
I6
s(I1225
tp260
I20
s(I4607
tp261
I1
s(I176
tp262
I1209
s(I3239
tp263
I8
s(I2190
tp264
I8
s(I1460
tp265
I11
s(I411
tp266
I200
s(I3458
tp267
I3
s(I1704
tp268
I9
s(I671
tp269
I62
s(I2925
tp270
I6
s(I1939
tp271
I4
s(I4281
tp272
I1
s(I122
tp273
I2658
s(I3169
tp274
I2
s(I-222
tp275
I6
s(I2120
tp276
I4
s(I1406
tp277
I15
s(I357
tp278
I283
s(I3404
tp279
I1
s(I1650
tp280
I12
s(I2355
tp281
I1
s(I601
tp282
I106
s(I2615
tp283
I4
s(I1885
tp284
I9
s(I836
tp285
I54
s(I3883
tp286
I1
s(I-276
tp287
I5
s(I2834
tp288
I2
s(I1080
tp289
I32
s(I4462
tp290
I2
s(I47
tp291
I19168
s(I3094
tp292
I1
s(I-41
tp293
I1281
s(I2301
tp294
I4
s(I1315
tp295
I12
s(I266
tp296
I552
s(I3569
tp297
I2
s(I1575
tp298
I12
s(I2520
tp299
I6
s(I526
tp300
I131
s(I2780
tp301
I3
s(I1794
tp302
I9
s(I4136
tp303
I2
s(I1001
tp304
I28
s(I-367
tp305
I1
s(I3015
tp306
I2
s(I1261
tp307
I22
s(I212
tp308
I806
s(I2210
tp309
I7
s(I1480
tp310
I14
s(I447
tp311
I191
s(I3494
tp312
I1
s(I1740
tp313
I17
s(I2445
tp314
I4
s(I691
tp315
I75
s(I3738
tp316
I1
s(I-421
tp317
I1
s(I2689
tp318
I3
s(I1975
tp319
I5
s(I926
tp320
I49
s(I-186
tp321
I9
s(I2156
tp322
I6
s(I1170
tp323
I22
s(I377
tp324
I223
s(I5845
tp325
I1
s(I3424
tp326
I2
s(I2391
tp327
I7
s(I637
tp328
I97
s(I3684
tp329
I4
s(I2635
tp330
I5
s(I1905
tp331
I10
s(I856
tp332
I45
s(I3919
tp333
I1
s(I2870
tp334
I4
s(I1116
tp335
I30
s(I4226
tp336
I1
s(I67
tp337
I9180
s(I3114
tp338
I5
s(I-21
tp339
I8244
s(I2065
tp340
I5
s(I1351
tp341
I21
s(I302
tp342
I410
s(I3349
tp343
I3
s(I1595
tp344
I13
s(I2556
tp345
I6
s(I546
tp346
I125
s(I3593
tp347
I3
s(I2800
tp348
I2
s(I1830
tp349
I15
s(I4172
tp350
I1
s(I781
tp351
I48
s(I-331
tp352
I1
s(I3035
tp353
I2
s(I1025
tp354
I35
s(I4407
tp355
I1
s(I232
tp356
I713
s(I3295
tp357
I3
s(I-112
tp358
I48
s(I2246
tp359
I9
s(I1516
tp360
I7
s(I467
tp361
I165
s(I1760
tp362
I6
s(I4886
tp363
I1
s(I2465
tp364
I4
s(I727
tp365
I73
s(I3774
tp366
I2
s(I-385
tp367
I1
s(I2725
tp368
I4
s(I1995
tp369
I6
s(I4337
tp370
I2
s(I946
tp371
I30
s(I3993
tp372
I3
s(I-166
tp373
I12
s(I2944
tp374
I4
s(I1206
tp375
I25
s(I157
tp376
I1590
s(I3204
tp377
I4
s(I4816
tp378
I1
s(I2411
tp379
I5
s(I1425
tp380
I15
s(I2671
tp381
I3
s(I1685
tp382
I10
s(I892
tp383
I39
s(I3939
tp384
I4
s(I5311
tp385
I1
s(I1136
tp386
I29
s(I103
tp387
I3737
s(I3150
tp388
I2
s(I-241
tp389
I2
s(I2101
tp390
I8
s(I1371
tp391
I17
s(I-1034
tp392
I1
s(I4481
tp393
I3
s(I322
tp394
I348
s(I3369
tp395
I2
s(I1631
tp396
I15
s(I4741
tp397
I2
s(I2320
tp398
I4
s(I582
tp399
I93
s(I3629
tp400
I1
s(I2580
tp401
I8
s(I1850
tp402
I9
s(I4192
tp403
I2
s(I801
tp404
I47
s(I3848
tp405
I3
s(I3071
tp406
I3
s(I1061
tp407
I26
s(I4427
tp408
I2
s(I12
tp409
I308452
s(I5720
tp410
I1
s(I3315
tp411
I2
s(I-76
tp412
I178
s(I4687
tp413
I1
s(I2266
tp414
I12
s(I1280
tp415
I20
s(I503
tp416
I151
s(I3550
tp417
I2
s(I1540
tp418
I18
s(I2501
tp419
I3
s(I747
tp420
I57
s(I3794
tp421
I3
s(I2745
tp422
I8
s(I2031
tp423
I1
s(I4117
tp424
I2
s(I982
tp425
I33
s(I-130
tp426
I36
s(I2980
tp427
I3
s(I1226
tp428
I22
s(I177
tp429
I1212
s(I3224
tp430
I1
s(I2191
tp431
I7
s(I1461
tp432
I13
s(I412
tp433
I203
s(I1705
tp434
I10
s(I656
tp435
I79
s(I3719
tp436
I2
s(I-456
tp437
I1
s(I2926
tp438
I3
s(I1940
tp439
I9
s(I123
tp440
I2629
s(I-221
tp441
I8
s(I2121
tp442
I12
s(I1407
tp443
I13
s(I358
tp444
I291
s(I3405
tp445
I4
s(I1651
tp446
I10
s(I4761
tp447
I1
s(I2356
tp448
I3
s(I602
tp449
I88
s(I3649
tp450
I2
s(I2600
tp451
I4
s(I1886
tp452
I12
s(I4996
tp453
I1
s(I837
tp454
I44
s(I3884
tp455
I2
s(I2835
tp456
I4
s(I1081
tp457
I23
s(I32
tp458
I38448
s(I3095
tp459
I3
s(I-56
tp460
I545
s(I4707
tp461
I1
s(I2302
tp462
I5
s(I1316
tp463
I18
s(I267
tp464
I508
s(I3570
tp465
I1
s(I1560
tp466
I16
s(I2521
tp467
I6
s(I527
tp468
I113
s(I5186
tp469
I1
s(I2781
tp470
I8
s(I1795
tp471
I10
s(I4137
tp472
I2
s(I1002
tp473
I33
s(I-366
tp474
I1
s(I3000
tp475
I2
s(I1262
tp476
I22
s(I4372
tp477
I1
s(I213
tp478
I860
s(I3260
tp479
I3
s(I4616
tp480
I1
s(I2211
tp481
I8
s(I1481
tp482
I11
s(I432
tp483
I183
s(I3495
tp484
I5
s(I1741
tp485
I6
s(I2446
tp486
I6
s(I692
tp487
I68
s(I3739
tp488
I3
s(I5367
tp489
I1
s(I2690
tp490
I2
s(I1960
tp491
I6
s(I927
tp492
I34
s(I3974
tp493
I3
s(I-185
tp494
I10
s(I2157
tp495
I6
s(I1171
tp496
I26
s(I4537
tp497
I1
s(I378
tp498
I294
s(I3425
tp499
I4
s(I4797
tp500
I1
s(I2376
tp501
I1
s(I638
tp502
I92
s(I3685
tp503
I2
s(I2636
tp504
I1
s(I1906
tp505
I15
s(I5016
tp506
I1
s(I857
tp507
I54
s(I3904
tp508
I2
s(I2871
tp509
I3
s(I1117
tp510
I28
s(I4227
tp511
I2
s(I68
tp512
I8980
s(I3115
tp513
I1
s(I-20
tp514
I9201
s(I2066
tp515
I8
s(I1336
tp516
I22
s(I303
tp517
I405
s(I3350
tp518
I2
s(I1596
tp519
I17
s(I4962
tp520
I2
s(I2557
tp521
I4
s(I547
tp522
I104
s(I3594
tp523
I1
s(I2801
tp524
I2
s(I1831
tp525
I11
s(I782
tp526
I52
s(I4085
tp527
I1
s(I3036
tp528
I6
s(I1026
tp529
I38
s(I233
tp530
I619
s(I3280
tp531
I1
s(I-111
tp532
I57
s(I4652
tp533
I1
s(I2247
tp534
I4
s(I1517
tp535
I6
s(I468
tp536
I163
s(I3515
tp537
I2
s(I1761
tp538
I13
s(I2466
tp539
I10
s(I712
tp540
I60
s(I2726
tp541
I5
s(I1996
tp542
I8
s(I947
tp543
I40
s(I-165
tp544
I19
s(I2945
tp545
I6
s(I1207
tp546
I15
s(I158
tp547
I1632
s(I3205
tp548
I6
s(I2412
tp549
I5
s(I1426
tp550
I12
s(I2656
tp551
I5
s(I1686
tp552
I20
s(I5052
tp553
I1
s(I893
tp554
I46
s(I2891
tp555
I4
s(I1137
tp556
I29
s(I4263
tp557
I2
s(I88
tp558
I5214
s(I3151
tp559
I2
s(I-256
tp560
I3
s(I5531
tp561
I1
s(I2102
tp562
I8
s(I1372
tp563
I20
s(I4482
tp564
I1
s(I323
tp565
I346
s(I6761
tp566
I1
s(I3370
tp567
I4
s(I1616
tp568
I9
s(I4742
tp569
I1
s(I2321
tp570
I8
s(I583
tp571
I72
s(I3630
tp572
I4
s(I2581
tp573
I4
s(I1851
tp574
I16
s(I4193
tp575
I1
s(I802
tp576
I52
s(I3849
tp577
I2
s(I-310
tp578
I1
s(I3056
tp579
I3
s(I1062
tp580
I20
s(I4428
tp581
I3
s(I13
tp582
I262793
s(I3316
tp583
I4
s(I-75
tp584
I210
s(I2267
tp585
I5
s(I1281
tp586
I22
s(I488
tp587
I143
s(I3551
tp588
I4
s(I1541
tp589
I15
s(I2502
tp590
I5
s(I748
tp591
I61
s(I3795
tp592
I1
s(I2746
tp593
I6
s(I2016
tp594
I4
s(I4118
tp595
I1
s(I983
tp596
I33
s(I4030
tp597
I4
s(I-129
tp598
I32
s(I2981
tp599
I1
s(I1227
tp600
I20
s(I178
tp601
I1277
s(I3225
tp602
I3
s(I2176
tp603
I5
s(I1462
tp604
I17
s(I413
tp605
I195
s(I1706
tp606
I7
s(I5072
tp607
I1
s(I657
tp608
I72
s(I3960
tp609
I3
s(I2927
tp610
I7
s(I1941
tp611
I15
s(I4283
tp612
I2
s(I124
tp613
I2617
s(I3171
tp614
I4
s(I-220
tp615
I5
s(I2122
tp616
I3
s(I1392
tp617
I19
s(I359
tp618
I302
s(I3406
tp619
I3
s(I1652
tp620
I14
s(I2357
tp621
I5
s(I603
tp622
I95
s(I3650
tp623
I1
s(I2601
tp624
I5
s(I1887
tp625
I9
s(I-534
tp626
I1
s(I838
tp627
I40
s(I3885
tp628
I3
s(I-274
tp629
I1
s(I2836
tp630
I3
s(I1082
tp631
I18
s(I33
tp632
I35736
s(I3080
tp633
I3
s(I-55
tp634
I562
s(I2303
tp635
I4
s(I1317
tp636
I17
s(I268
tp637
I540
s(I3571
tp638
I2
s(I1561
tp639
I11
s(I4943
tp640
I1
s(I2522
tp641
I4
s(I512
tp642
I132
s(I3831
tp643
I1
s(I2782
tp644
I2
s(I1796
tp645
I10
s(I1003
tp646
I28
s(I-365
tp647
I2
s(I3001
tp648
I4
s(I1263
tp649
I14
s(I4373
tp650
I2
s(I214
tp651
I886
s(I3261
tp652
I3
s(I2212
tp653
I8
s(I1482
tp654
I15
s(I433
tp655
I167
s(I3480
tp656
I2
s(I1742
tp657
I7
s(I5108
tp658
I2
s(I2447
tp659
I4
s(I693
tp660
I54
s(I3740
tp661
I3
s(I5352
tp662
I1
s(I2691
tp663
I5
s(I1961
tp664
I7
s(I4319
tp665
I2
s(I912
tp666
I49
s(I3975
tp667
I2
s(I-200
tp668
I10
s(I2158
tp669
I11
s(I1172
tp670
I14
s(I4538
tp671
I1
s(I379
tp672
I297
s(I3426
tp673
I2
s(I2377
tp674
I6
s(I639
tp675
I90
s(I3686
tp676
I2
s(I2637
tp677
I3
s(I1907
tp678
I13
s(I858
tp679
I51
s(I3905
tp680
I1
s(I-510
tp681
I1
s(I2856
tp682
I4
s(I1118
tp683
I26
s(I4228
tp684
I2
s(I69
tp685
I8677
s(I-19
tp686
I10278
s(I4728
tp687
I1
s(I2067
tp688
I7
s(I1337
tp689
I21
s(I288
tp690
I408
s(I3351
tp691
I3
s(I1597
tp692
I12
s(I2558
tp693
I6
s(I548
tp694
I117
s(I3595
tp695
I3
s(I2802
tp696
I2
s(I1816
tp697
I9
s(I4174
tp698
I1
s(I783
tp699
I54
s(I4086
tp700
I1
s(I3037
tp701
I5
s(I1027
tp702
I27
s(I234
tp703
I670
s(I3281
tp704
I1
s(I-110
tp705
I62
s(I4653
tp706
I1
s(I2232
tp707
I3
s(I1518
tp708
I7
s(I469
tp709
I147
s(I3516
tp710
I3
s(I1762
tp711
I8
s(I-643
tp712
I1
s(I2467
tp713
I4
s(I713
tp714
I73
s(I3760
tp715
I3
s(I5132
tp716
I1
s(I2727
tp717
I5
s(I1997
tp718
I10
s(I4339
tp719
I2
s(I948
tp720
I39
s(I3995
tp721
I1
s(I-164
tp722
I15
s(I2946
tp723
I3
s(I1192
tp724
I22
s(I4574
tp725
I1
s(I159
tp726
I1519
s(I3206
tp727
I3
s(I2413
tp728
I2
s(I1427
tp729
I22
s(I2657
tp730
I3
s(I1687
tp731
I8
s(I894
tp732
I44
s(I3941
tp733
I3
s(I5297
tp734
I1
s(I2892
tp735
I2
s(I1138
tp736
I21
s(I89
tp737
I5204
s(I3136
tp738
I1
s(I-255
tp739
I2
s(I2103
tp740
I2
s(I1373
tp741
I13
s(I4483
tp742
I1
s(I324
tp743
I327
s(I5776
tp744
I1
s(I3371
tp745
I4
s(I1617
tp746
I7
s(I2322
tp747
I3
s(I568
tp748
I88
s(I3631
tp749
I6
s(I2582
tp750
I10
s(I1852
tp751
I8
s(I4194
tp752
I1
s(I803
tp753
I60
s(I3850
tp754
I3
s(I3057
tp755
I4
s(I1063
tp756
I25
s(I4429
tp757
I1
s(I14
tp758
I224765
s(I3317
tp759
I1
s(I-74
tp760
I226
s(I2268
tp761
I2
s(I1282
tp762
I20
s(I489
tp763
I160
s(I3536
tp764
I1
s(I1542
tp765
I6
s(I2503
tp766
I4
s(I749
tp767
I57
s(I3796
tp768
I2
s(I2747
tp769
I4
s(I2017
tp770
I6
s(I4119
tp771
I4
s(I968
tp772
I29
s(I4031
tp773
I1
s(I-144
tp774
I19
s(I5387
tp775
I1
s(I2982
tp776
I4
s(I1228
tp777
I25
s(I179
tp778
I1184
s(I3226
tp779
I1
s(I2177
tp780
I4
s(I1463
tp781
I13
s(I414
tp782
I199
s(I1707
tp783
I11
s(I658
tp784
I79
s(I3961
tp785
I1
s(I5333
tp786
I1
s(I2912
tp787
I4
s(I1942
tp788
I7
s(I125
tp789
I2533
s(I3172
tp790
I2
s(I-219
tp791
I12
s(I2123
tp792
I3
s(I1393
tp793
I18
s(I4519
tp794
I1
s(I344
tp795
I271
s(I1653
tp796
I11
s(I4763
tp797
I1
s(I2358
tp798
I3
s(I604
tp799
I94
s(I2602
tp800
I4
s(I1872
tp801
I10
s(I839
tp802
I36
s(I3886
tp803
I3
s(I-273
tp804
I1
s(I2837
tp805
I4
s(I1083
tp806
I33
s(I4449
tp807
I2
s(I34
tp808
I35087
s(I3081
tp809
I5
s(I-54
tp810
I568
s(I2288
tp811
I4
s(I1318
tp812
I18
s(I269
tp813
I524
s(I3572
tp814
I3
s(I1562
tp815
I13
s(I4928
tp816
I1
s(I2523
tp817
I2
s(I513
tp818
I138
s(I3816
tp819
I2
s(I2783
tp820
I4
s(I1797
tp821
I9
s(I4139
tp822
I1
s(I1004
tp823
I26
s(I3002
tp824
I3
s(I1248
tp825
I18
s(I215
tp826
I848
s(I3262
tp827
I4
s(I2213
tp828
I5
s(I1483
tp829
I17
s(I434
tp830
I188
s(I3481
tp831
I1
s(I1743
tp832
I9
s(I2432
tp833
I6
s(I694
tp834
I65
s(I-418
tp835
I1
s(I2692
tp836
I6
s(I1962
tp837
I4
s(I913
tp838
I37
s(I3192
tp839
I1
s(I-199
tp840
I5
s(I2159
tp841
I8
s(I1173
tp842
I21
s(I4539
tp843
I1
s(I380
tp844
I235
s(I3427
tp845
I1
s(I2378
tp846
I5
s(I624
tp847
I97
s(I3687
tp848
I1
s(I2638
tp849
I5
s(I1908
tp850
I6
s(I859
tp851
I45
s(I5278
tp852
I1
s(I2857
tp853
I3
s(I1119
tp854
I24
s(I70
tp855
I8502
s(I3117
tp856
I2
s(I-18
tp857
I12079
s(I4729
tp858
I2
s(I2068
tp859
I6
s(I1338
tp860
I15
s(I289
tp861
I467
s(I3336
tp862
I4
s(I1598
tp863
I10
s(I2559
tp864
I2
s(I549
tp865
I95
s(I3596
tp866
I2
s(I2803
tp867
I6
s(I1817
tp868
I11
s(I4175
tp869
I2
s(I768
tp870
I63
s(I-344
tp871
I1
s(I3038
tp872
I1
s(I1028
tp873
I17
s(I235
tp874
I699
s(I5703
tp875
I1
s(I3282
tp876
I1
s(I-109
tp877
I65
s(I2233
tp878
I5
s(I1519
tp879
I7
s(I470
tp880
I174
s(I3517
tp881
I1
s(I1763
tp882
I6
s(I4873
tp883
I1
s(I2468
tp884
I8
s(I714
tp885
I75
s(I2712
tp886
I4
s(I1998
tp887
I6
s(I4340
tp888
I1
s(I949
tp889
I33
s(I3996
tp890
I1
s(I-163
tp891
I14
s(I2947
tp892
I3
s(I1193
tp893
I20
s(I4575
tp894
I2
s(I144
tp895
I1816
s(I3207
tp896
I1
s(I4819
tp897
I2
s(I2414
tp898
I7
s(I1428
tp899
I9
s(I3707
tp900
I2
s(I2658
tp901
I3
s(I1672
tp902
I12
s(I895
tp903
I42
s(I3942
tp904
I3
s(I2893
tp905
I4
s(I1139
tp906
I27
s(I4249
tp907
I1
s(I90
tp908
I5011
s(I3137
tp909
I3
s(I-254
tp910
I1
s(I2088
tp911
I4
s(I1374
tp912
I16
s(I325
tp913
I365
s(I3372
tp914
I3
s(I1618
tp915
I11
s(I2323
tp916
I7
s(I569
tp917
I88
s(I3616
tp918
I1
s(I2583
tp919
I2
s(I1853
tp920
I11
s(I4195
tp921
I1
s(I804
tp922
I53
s(I3851
tp923
I2
s(I-308
tp924
I1
s(I3058
tp925
I4
s(I1048
tp926
I22
s(I4430
tp927
I1
s(I15
tp928
I196796
s(I3318
tp929
I3
s(I-73
tp930
I215
s(I2269
tp931
I4
s(I1283
tp932
I15
s(I490
tp933
I131
s(I3537
tp934
I3
s(I1543
tp935
I8
s(I2488
tp936
I2
s(I750
tp937
I65
s(I3797
tp938
I1
s(I5153
tp939
I1
s(I2748
tp940
I1
s(I2018
tp941
I5
s(I4104
tp942
I2
s(I969
tp943
I17
s(I4016
tp944
I2
s(I-143
tp945
I23
s(I2983
tp946
I4
s(I1229
tp947
I19
s(I4595
tp948
I1
s(I180
tp949
I1182
s(I3227
tp950
I7
s(I4855
tp951
I1
s(I2178
tp952
I9
s(I1448
tp953
I15
s(I415
tp954
I211
s(I1708
tp955
I5
s(I659
tp956
I71
s(I3962
tp957
I1
s(I5334
tp958
I1
s(I2913
tp959
I7
s(I1943
tp960
I12
s(I126
tp961
I2475
s(I3173
tp962
I2
s(I-218
tp963
I3
s(I2124
tp964
I8
s(I1394
tp965
I9
s(I4504
tp966
I1
s(I345
tp967
I321
s(I1654
tp968
I11
s(I4764
tp969
I1
s(I2359
tp970
I5
s(I605
tp971
I87
s(I3652
tp972
I4
s(I2603
tp973
I5
s(I1873
tp974
I10
s(I824
tp975
I41
s(I-288
tp976
I3
s(I2838
tp977
I8
s(I1084
tp978
I13
s(I4450
tp979
I2
s(I35
tp980
I34556
s(I3082
tp981
I2
s(I-53
tp982
I608
s(I2289
tp983
I6
s(I1319
tp984
I26
s(I270
tp985
I500
s(I3573
tp986
I3
s(I1563
tp987
I16
s(I2524
tp988
I6
s(I514
tp989
I157
s(I3817
tp990
I1
s(I2768
tp991
I7
s(I1798
tp992
I9
s(I4140
tp993
I3
s(I1005
tp994
I29
s(I4052
tp995
I1
s(I-363
tp996
I1
s(I1249
tp997
I22
s(I4375
tp998
I4
s(I200
tp999
I952
s(I5668
tp1000
I1
s(I3263
tp1001
I5
s(I4619
tp1002
I2
s(I2214
tp1003
I10
s(I1484
tp1004
I17
s(I435
tp1005
I184
s(I3482
tp1006
I2
s(I1728
tp1007
I12
s(I2433
tp1008
I3
s(I695
tp1009
I61
s(I3742
tp1010
I1
s(I-417
tp1011
I1
s(I2693
tp1012
I6
s(I1963
tp1013
I8
s(I914
tp1014
I41
s(I3193
tp1015
I1
s(I-198
tp1016
I8
s(I2144
tp1017
I6
s(I1174
tp1018
I14
s(I381
tp1019
I240
s(I3428
tp1020
I2
s(I2379
tp1021
I4
s(I625
tp1022
I75
s(I3672
tp1023
I2
s(I2639
tp1024
I6
s(I1909
tp1025
I6
s(I-768
tp1026
I1
s(I860
tp1027
I47
s(I3907
tp1028
I2
s(I-508
tp1029
I1
s(I2858
tp1030
I1
s(I1104
tp1031
I25
s(I4230
tp1032
I2
s(I71
tp1033
I8102
s(I3118
tp1034
I2
s(I-17
tp1035
I13656
s(I4730
tp1036
I1
s(I2069
tp1037
I3
s(I1339
tp1038
I15
s(I290
tp1039
I447
s(I3337
tp1040
I2
s(I1599
tp1041
I10
s(I4965
tp1042
I1
s(I2544
tp1043
I6
s(I550
tp1044
I112
s(I3597
tp1045
I4
s(I2804
tp1046
I4
s(I1818
tp1047
I9
s(I-587
tp1048
I1
s(I4160
tp1049
I2
s(I769
tp1050
I62
s(I4072
tp1051
I2
s(I-343
tp1052
I2
s(I5444
tp1053
I2
s(I3039
tp1054
I1
s(I1029
tp1055
I27
s(I4395
tp1056
I1
s(I236
tp1057
I660
s(I3283
tp1058
I2
s(I-108
tp1059
I62
s(I2234
tp1060
I8
s(I1504
tp1061
I12
s(I471
tp1062
I155
s(I3518
tp1063
I7
s(I1764
tp1064
I11
s(I4874
tp1065
I1
s(I2469
tp1066
I2
s(I715
tp1067
I79
s(I3762
tp1068
I1
s(I2713
tp1069
I4
s(I1999
tp1070
I6
s(I950
tp1071
I35
s(I3997
tp1072
I1
s(I-162
tp1073
I19
s(I1194
tp1074
I25
s(I145
tp1075
I1838
s(I3448
tp1076
I6
s(I4820
tp1077
I3
s(I2415
tp1078
I3
s(I1429
tp1079
I17
s(I3708
tp1080
I2
s(I2659
tp1081
I4
s(I1673
tp1082
I14
s(I880
tp1083
I38
s(I3943
tp1084
I3
s(I2894
tp1085
I5
s(I1140
tp1086
I23
s(I4250
tp1087
I2
s(I91
tp1088
I4908
s(I3138
tp1089
I4
s(I-253
tp1090
I3
s(I2089
tp1091
I5
s(I1375
tp1092
I12
s(I326
tp1093
I344
s(I3373
tp1094
I1
s(I1619
tp1095
I9
s(I4985
tp1096
I1
s(I2324
tp1097
I6
s(I570
tp1098
I105
s(I3617
tp1099
I1
s(I2568
tp1100
I2
s(I1854
tp1101
I14
s(I4196
tp1102
I4
s(I805
tp1103
I51
s(I3852
tp1104
I4
s(I-307
tp1105
I1
s(I3059
tp1106
I2
s(I1049
tp1107
I28
s(I4431
tp1108
I1
s(I0
tp1109
I2494123
s(I3319
tp1110
I1
s(I-88
tp1111
I126
s(I4675
tp1112
I1
s(I2270
tp1113
I5
s(I1284
tp1114
I25
s(I491
tp1115
I134
s(I3538
tp1116
I4
s(I1784
tp1117
I11
s(I2489
tp1118
I7
s(I751
tp1119
I68
s(I3798
tp1120
I1
s(I5154
tp1121
I1
s(I2749
tp1122
I4
s(I2019
tp1123
I11
s(I970
tp1124
I24
s(I-142
tp1125
I16
s(I2968
tp1126
I4
s(I1230
tp1127
I18
s(I181
tp1128
I1150
s(I2179
tp1129
I9
s(I1449
tp1130
I9
s(I400
tp1131
I235
s(I3463
tp1132
I1
s(I1709
tp1133
I10
s(I660
tp1134
I70
s(I3963
tp1135
I2
s(I2914
tp1136
I3
s(I1928
tp1137
I2
s(I127
tp1138
I2410
s(I3174
tp1139
I4
s(I-217
tp1140
I9
s(I2125
tp1141
I3
s(I1395
tp1142
I12
s(I346
tp1143
I269
s(I3393
tp1144
I1
s(I1655
tp1145
I7
s(I4765
tp1146
I1
s(I2344
tp1147
I4
s(I606
tp1148
I87
s(I2604
tp1149
I4
s(I1874
tp1150
I5
s(I4216
tp1151
I1
s(I825
tp1152
I62
s(I3872
tp1153
I1
s(I-287
tp1154
I1
s(I2839
tp1155
I2
s(I1085
tp1156
I37
s(I4451
tp1157
I2
s(I36
tp1158
I33034
s(I-52
tp1159
I670
s(I2290
tp1160
I4
s(I1304
tp1161
I15
s(I271
tp1162
I524
s(I3574
tp1163
I1
s(I1564
tp1164
I10
s(I4930
tp1165
I1
s(I2525
tp1166
I6
s(I515
tp1167
I124
s(I2769
tp1168
I4
s(I1799
tp1169
I7
s(I4141
tp1170
I1
s(I1006
tp1171
I29
s(I-362
tp1172
I1
s(I5409
tp1173
I1
s(I3004
tp1174
I2
s(I1250
tp1175
I18
s(I4360
tp1176
I3
s(I201
tp1177
I946
s(I3248
tp1178
I3
s(I2215
tp1179
I6
s(I1485
tp1180
I17
s(I436
tp1181
I186
s(I3483
tp1182
I5
s(I1729
tp1183
I15
s(I2434
tp1184
I8
s(I680
tp1185
I78
s(I3743
tp1186
I1
s(I-432
tp1187
I1
s(I2694
tp1188
I3
s(I1964
tp1189
I4
s(I4306
tp1190
I2
s(I915
tp1191
I33
s(I3194
tp1192
I3
s(I-197
tp1193
I9
s(I2145
tp1194
I6
s(I1175
tp1195
I20
s(I4541
tp1196
I3
s(I382
tp1197
I247
s(I3429
tp1198
I3
s(I2380
tp1199
I5
s(I626
tp1200
I77
s(I3673
tp1201
I1
s(I2624
tp1202
I8
s(I1910
tp1203
I8
s(I861
tp1204
I47
s(I3908
tp1205
I1
s(I5264
tp1206
I1
s(I1105
tp1207
I27
s(I56
tp1208
I13388
s(I3119
tp1209
I2
s(I-32
tp1210
I2659
s(I2070
tp1211
I8
s(I1340
tp1212
I20
s(I291
tp1213
I427
s(I3338
tp1214
I3
s(I1584
tp1215
I14
s(I4966
tp1216
I1
s(I2545
tp1217
I2
s(I551
tp1218
I117
s(I3598
tp1219
I4
s(I2805
tp1220
I2
s(I1819
tp1221
I2
s(I4161
tp1222
I2
s(I770
tp1223
I52
s(I4073
tp1224
I2
s(I3024
tp1225
I4
s(I1030
tp1226
I31
s(I4396
tp1227
I3
s(I237
tp1228
I659
s(I-107
tp1229
I42
s(I4640
tp1230
I2
s(I2235
tp1231
I7
s(I1505
tp1232
I15
s(I456
tp1233
I173
s(I1765
tp1234
I11
s(I-656
tp1235
I1
s(I2470
tp1236
I1
s(I716
tp1237
I61
s(I3763
tp1238
I1
s(I2714
tp1239
I3
s(I1984
tp1240
I6
s(I4342
tp1241
I2
s(I951
tp1242
I31
s(I-161
tp1243
I15
s(I2949
tp1244
I5
s(I1195
tp1245
I16
s(I4561
tp1246
I1
s(I146
tp1247
I1805
s(I3449
tp1248
I2
s(I4821
tp1249
I1
s(I2400
tp1250
I4
s(I1430
tp1251
I9
s(I3709
tp1252
I3
s(I2660
tp1253
I7
s(I1674
tp1254
I13
s(I881
tp1255
I40
s(I3928
tp1256
I1
s(I2895
tp1257
I2
s(I1141
tp1258
I33
s(I92
tp1259
I4855
s(I3139
tp1260
I4
s(I-252
tp1261
I2
s(I5535
tp1262
I1
s(I2090
tp1263
I11
s(I1360
tp1264
I13
s(I327
tp1265
I370
s(I3374
tp1266
I2
s(I1620
tp1267
I7
s(I4986
tp1268
I1
s(I2325
tp1269
I3
s(I571
tp1270
I114
s(I5246
tp1271
I1
s(I2569
tp1272
I7
s(I1855
tp1273
I3
s(I4197
tp1274
I2
s(I806
tp1275
I52
s(I3853
tp1276
I1
s(I-306
tp1277
I1
s(I3060
tp1278
I3
s(I1050
tp1279
I37
s(I4416
tp1280
I1
s(I1
tp1281
I23901099
s(I-87
tp1282
I122
s(I4676
tp1283
I2
s(I2271
tp1284
I5
s(I1285
tp1285
I18
s(I492
tp1286
I151
s(I3539
tp1287
I2
s(I1785
tp1288
I8
s(I2490
tp1289
I6
s(I736
tp1290
I55
s(I3799
tp1291
I3
s(I2750
tp1292
I4
s(I2020
tp1293
I4
s(I4106
tp1294
I3
s(I971
tp1295
I33
s(I4018
tp1296
I1
s(I-141
tp1297
I27
s(I2969
tp1298
I3
s(I1231
tp1299
I18
s(I4597
tp1300
I2
s(I182
tp1301
I1142
s(I3229
tp1302
I3
s(I4841
tp1303
I1
s(I2180
tp1304
I11
s(I1450
tp1305
I14
s(I401
tp1306
I212
s(I2680
tp1307
I2
s(I1710
tp1308
I13
s(I661
tp1309
I88
s(I3964
tp1310
I1
s(I2915
tp1311
I4
s(I1929
tp1312
I10
s(I4287
tp1313
I1
s(I112
tp1314
I3206
s(I3175
tp1315
I3
s(I-232
tp1316
I3
s(I2126
tp1317
I3
s(I1396
tp1318
I11
s(I347
tp1319
I335
s(I3394
tp1320
I1
s(I1640
tp1321
I13
s(I4766
tp1322
I1
s(I2345
tp1323
I9
s(I607
tp1324
I91
s(I3654
tp1325
I2
s(I2605
tp1326
I4
s(I1875
tp1327
I10
s(I4217
tp1328
I2
s(I826
tp1329
I44
s(I3873
tp1330
I2
s(I-286
tp1331
I2
s(I2824
tp1332
I5
s(I1086
tp1333
I27
s(I4452
tp1334
I1
s(I37
tp1335
I31042
s(I3084
tp1336
I1
s(I-51
tp1337
I661
s(I2291
tp1338
I10
s(I1305
tp1339
I21
s(I256
tp1340
I546
s(I3575
tp1341
I3
s(I1565
tp1342
I18
s(I2526
tp1343
I4
s(I516
tp1344
I138
s(I3819
tp1345
I2
s(I2770
tp1346
I5
s(I2040
tp1347
I10
s(I4142
tp1348
I1
s(I1007
tp1349
I36
s(I4054
tp1350
I1
s(I-361
tp1351
I1
s(I3005
tp1352
I7
s(I1251
tp1353
I21
s(I4361
tp1354
I3
s(I202
tp1355
I897
s(I3249
tp1356
I2
s(I4621
tp1357
I1
s(I2200
tp1358
I8
s(I1486
tp1359
I16
s(I437
tp1360
I176
s(I3484
tp1361
I2
s(I1730
tp1362
I11
s(I2435
tp1363
I6
s(I681
tp1364
I81
s(I3728
tp1365
I2
s(I5356
tp1366
I1
s(I2695
tp1367
I1
s(I1965
tp1368
I5
s(I916
tp1369
I36
s(I3195
tp1370
I1
s(I-196
tp1371
I11
s(I2146
tp1372
I10
s(I1160
tp1373
I26
s(I4542
tp1374
I4
s(I383
tp1375
I242
s(I3430
tp1376
I4
s(I4786
tp1377
I1
s(I2381
tp1378
I3
s(I627
tp1379
I101
s(I3674
tp1380
I1
s(I2625
tp1381
I2
s(I1911
tp1382
I8
s(I862
tp1383
I49
s(I3909
tp1384
I2
s(I-506
tp1385
I1
s(I1106
tp1386
I28
s(I57
tp1387
I12930
s(I3104
tp1388
I5
s(I-31
tp1389
I2723
s(I2071
tp1390
I9
s(I1341
tp1391
I17
s(I292
tp1392
I415
s(I3339
tp1393
I4
s(I1585
tp1394
I10
s(I2546
tp1395
I4
s(I536
tp1396
I114
s(I3599
tp1397
I4
s(I2806
tp1398
I2
s(I1820
tp1399
I12
s(I771
tp1400
I55
s(I4074
tp1401
I2
s(I3025
tp1402
I1
s(I1031
tp1403
I30
s(I4397
tp1404
I1
s(I238
tp1405
I652
s(I3285
tp1406
I1
s(I-106
tp1407
I72
s(I2236
tp1408
I4
s(I1506
tp1409
I5
s(I457
tp1410
I161
s(I3504
tp1411
I2
s(I1766
tp1412
I5
s(I4876
tp1413
I1
s(I2471
tp1414
I7
s(I717
tp1415
I62
s(I5120
tp1416
I1
s(I2715
tp1417
I4
s(I1985
tp1418
I6
s(I4343
tp1419
I1
s(I936
tp1420
I23
s(I3999
tp1421
I2
s(I-176
tp1422
I6
s(I2950
tp1423
I2
s(I1196
tp1424
I20
s(I147
tp1425
I1840
s(I3450
tp1426
I2
s(I4822
tp1427
I1
s(I2401
tp1428
I5
s(I1431
tp1429
I27
s(I2661
tp1430
I5
s(I1675
tp1431
I15
s(I882
tp1432
I39
s(I2880
tp1433
I4
s(I1142
tp1434
I30
s(I4252
tp1435
I1
s(I93
tp1436
I4578
s(I3140
tp1437
I2
s(I-251
tp1438
I5
s(I2091
tp1439
I4
s(I1361
tp1440
I17
s(I4487
tp1441
I3
s(I312
tp1442
I376
s(I3375
tp1443
I1
s(I1621
tp1444
I14
s(I2326
tp1445
I7
s(I572
tp1446
I112
s(I3619
tp1447
I2
s(I2570
tp1448
I4
s(I1840
tp1449
I4
s(I4198
tp1450
I2
s(I807
tp1451
I50
s(I-305
tp1452
I2
s(I3061
tp1453
I2
s(I1051
tp1454
I30
s(I4417
tp1455
I1
s(I2
tp1456
I9490976
s(I3305
tp1457
I4
s(I-86
tp1458
I120
s(I2256
tp1459
I6
s(I1286
tp1460
I29
s(I493
tp1461
I124
s(I3540
tp1462
I5
s(I1786
tp1463
I6
s(I2491
tp1464
I3
s(I737
tp1465
I58
s(I2751
tp1466
I5
s(I2021
tp1467
I9
s(I4107
tp1468
I1
s(I972
tp1469
I36
s(I4019
tp1470
I1
s(I-140
tp1471
I21
s(I2970
tp1472
I4
s(I1216
tp1473
I18
s(I183
tp1474
I1186
s(I3230
tp1475
I4
s(I2181
tp1476
I8
s(I1451
tp1477
I15
s(I402
tp1478
I202
s(I2681
tp1479
I5
s(I1711
tp1480
I13
s(I662
tp1481
I71
s(I3965
tp1482
I1
s(I2916
tp1483
I4
s(I1930
tp1484
I9
s(I4272
tp1485
I1
s(I113
tp1486
I2955
s(I3160
tp1487
I1
s(I-231
tp1488
I3
s(I2127
tp1489
I10
s(I1397
tp1490
I15
s(I4507
tp1491
I2
s(I348
tp1492
I283
s(I3395
tp1493
I2
s(I1641
tp1494
I14
s(I4767
tp1495
I1
s(I2346
tp1496
I4
s(I592
tp1497
I114
s(I3655
tp1498
I3
s(I2606
tp1499
I1
s(I1876
tp1500
I10
s(I4218
tp1501
I3
s(I827
tp1502
I53
s(I3874
tp1503
I4
s(I-285
tp1504
I3
s(I2825
tp1505
I3
s(I1087
tp1506
I33
s(I4453
tp1507
I1
s(I38
tp1508
I29467
s(I3085
tp1509
I2
s(I-50
tp1510
I742
s(I2292
tp1511
I6
s(I1306
tp1512
I19
s(I257
tp1513
I590
s(I3560
tp1514
I3
s(I1566
tp1515
I14
s(I2527
tp1516
I7
s(I517
tp1517
I124
s(I3820
tp1518
I2
s(I2771
tp1519
I4
s(I2041
tp1520
I6
s(I992
tp1521
I28
s(I4055
tp1522
I2
s(I3006
tp1523
I2
s(I1252
tp1524
I18
s(I203
tp1525
I932
s(I3250
tp1526
I4
s(I4622
tp1527
I1
s(I2201
tp1528
I6
s(I1487
tp1529
I13
s(I438
tp1530
I194
s(I3485
tp1531
I2
s(I1731
tp1532
I8
s(I5097
tp1533
I1
s(I2436
tp1534
I2
s(I682
tp1535
I62
s(I3729
tp1536
I1
s(I2936
tp1537
I4
s(I1966
tp1538
I2
s(I4308
tp1539
I4
s(I917
tp1540
I23
s(I3196
tp1541
I2
s(I-195
tp1542
I9
s(I2147
tp1543
I10
s(I1161
tp1544
I28
s(I4543
tp1545
I1
s(I368
tp1546
I264
s(I3431
tp1547
I3
s(I4787
tp1548
I1
s(I2382
tp1549
I7
s(I628
tp1550
I104
s(I3675
tp1551
I2
s(I2626
tp1552
I3
s(I1896
tp1553
I9
s(I863
tp1554
I42
s(I3910
tp1555
I2
s(I2861
tp1556
I1
s(I1107
tp1557
I28
s(I4473
tp1558
I1
s(I58
tp1559
I12502
s(I3105
tp1560
I5
s(I-30
tp1561
I3005
s(I4733
tp1562
I1
s(I2056
tp1563
I5
s(I1342
tp1564
I18
s(I293
tp1565
I461
s(I3340
tp1566
I2
s(I1586
tp1567
I15
s(I2547
tp1568
I3
s(I537
tp1569
I127
s(I3584
tp1570
I2
s(I2807
tp1571
I1
s(I1821
tp1572
I11
s(I4163
tp1573
I2
s(I772
tp1574
I57
s(I4075
tp1575
I2
s(I5447
tp1576
I1
s(I3026
tp1577
I2
s(I1272
tp1578
I21
s(I4398
tp1579
I2
s(I239
tp1580
I675
s(I3286
tp1581
I4
s(I-105
tp1582
I78
s(I4642
tp1583
I1
s(I2237
tp1584
I6
s(I1507
tp1585
I15
s(I458
tp1586
I164
s(I3505
tp1587
I2
s(I1767
tp1588
I8
s(I2456
tp1589
I11
s(I718
tp1590
I59
s(I3765
tp1591
I2
s(I-394
tp1592
I2
s(I2716
tp1593
I6
s(I1986
tp1594
I5
s(I937
tp1595
I36
s(I3984
tp1596
I3
s(I-175
tp1597
I15
s(I2951
tp1598
I4
s(I1197
tp1599
I18
s(I148
tp1600
I1771
s(I3451
tp1601
I3
s(I-964
tp1602
I1
s(I4823
tp1603
I1
s(I2402
tp1604
I6
s(I1416
tp1605
I21
s(I2662
tp1606
I3
s(I1676
tp1607
I11
s(I5042
tp1608
I1
s(I883
tp1609
I38
s(I3930
tp1610
I2
s(I2881
tp1611
I4
s(I1143
tp1612
I29
s(I4253
tp1613
I1
s(I94
tp1614
I4507
s(I3141
tp1615
I2
s(I-250
tp1616
I1
s(I2092
tp1617
I4
s(I1362
tp1618
I10
s(I313
tp1619
I385
s(I3360
tp1620
I2
s(I1622
tp1621
I9
s(I2327
tp1622
I8
s(I573
tp1623
I89
s(I3620
tp1624
I1
s(I2571
tp1625
I7
s(I1841
tp1626
I13
s(I4199
tp1627
I1
s(I792
tp1628
I62
s(I-320
tp1629
I2
s(I3062
tp1630
I2
s(I1052
tp1631
I33
s(I4418
tp1632
I2
s(I3
tp1633
I4640055
s(I3306
tp1634
I2
s(I-85
tp1635
I134
s(I2257
tp1636
I4
s(I1287
tp1637
I19
s(I494
tp1638
I163
s(I3541
tp1639
I3
s(I1787
tp1640
I11
s(I2492
tp1641
I3
s(I738
tp1642
I57
s(I2736
tp1643
I4
s(I2022
tp1644
I6
s(I973
tp1645
I31
s(I4020
tp1646
I1
s(I-139
tp1647
I29
s(I2971
tp1648
I4
s(I1217
tp1649
I18
s(I168
tp1650
I1331
s(I3231
tp1651
I3
s(I4843
tp1652
I2
s(I2182
tp1653
I6
s(I1452
tp1654
I18
s(I403
tp1655
I217
s(I2682
tp1656
I1
s(I1696
tp1657
I9
s(I663
tp1658
I79
s(I3966
tp1659
I2
s(I2917
tp1660
I3
s(I1931
tp1661
I9
s(I4273
tp1662
I1
s(I114
tp1663
I2912
s(I-230
tp1664
I4
s(I2112
tp1665
I3
s(I1398
tp1666
I16
s(I349
tp1667
I273
s(I3396
tp1668
I2
s(I1642
tp1669
I10
s(I4752
tp1670
I2
s(I2347
tp1671
I6
s(I593
tp1672
I122
s(I3640
tp1673
I2
s(I2607
tp1674
I2
s(I1877
tp1675
I12
s(I-544
tp1676
I1
s(I828
tp1677
I46
s(I3875
tp1678
I1
s(I-284
tp1679
I2
s(I2826
tp1680
I2
s(I1072
tp1681
I24
s(I39
tp1682
I27753
s(I-49
tp1683
I801
s(I2293
tp1684
I5
s(I1307
tp1685
I17
s(I258
tp1686
I561
s(I3561
tp1687
I4
s(I1567
tp1688
I12
s(I2512
tp1689
I5
s(I518
tp1690
I120
s(I3821
tp1691
I1
s(I2772
tp1692
I3
s(I2042
tp1693
I5
s(I4128
tp1694
I1
s(I993
tp1695
I39
s(I4040
tp1696
I5
s(I-375
tp1697
I1
s(I3007
tp1698
I2
s(I1253
tp1699
I16
s(I204
tp1700
I898
s(I3251
tp1701
I4
s(I4623
tp1702
I1
s(I2202
tp1703
I4
s(I1472
tp1704
I18
s(I439
tp1705
I198
s(I3486
tp1706
I1
s(I1732
tp1707
I11
s(I2437
tp1708
I4
s(I683
tp1709
I62
s(I2937
tp1710
I3
s(I1967
tp1711
I4
s(I4309
tp1712
I1
s(I918
tp1713
I40
s(I3197
tp1714
I2
s(I-194
tp1715
I5
s(I2148
tp1716
I7
s(I1162
tp1717
I33
s(I369
tp1718
I248
s(I3416
tp1719
I4
s(I2383
tp1720
I2
s(I629
tp1721
I85
s(I3676
tp1722
I3
s(I2627
tp1723
I2
s(I1897
tp1724
I8
s(I848
tp1725
I45
s(I3911
tp1726
I2
s(I-264
tp1727
I2
s(I2862
tp1728
I1
s(I1108
tp1729
I21
s(I59
tp1730
I12044
s(I3106
tp1731
I3
s(I-29
tp1732
I3325
s(I4734
tp1733
I1
s(I2057
tp1734
I12
s(I1343
tp1735
I22
s(I294
tp1736
I441
s(I3341
tp1737
I2
s(I1587
tp1738
I20
s(I2548
tp1739
I5
s(I538
tp1740
I128
s(I3585
tp1741
I2
s(I5213
tp1742
I2
s(I2792
tp1743
I4
s(I1822
tp1744
I9
s(I773
tp1745
I63
s(I-339
tp1746
I1
s(I3027
tp1747
I1
s(I1273
tp1748
I12
s(I4399
tp1749
I2
s(I224
tp1750
I721
s(I3287
tp1751
I5
s(I-120
tp1752
I29
s(I2238
tp1753
I3
s(I1508
tp1754
I15
s(I459
tp1755
I171
s(I5927
tp1756
I1
s(I3506
tp1757
I1
s(I1752
tp1758
I16
s(I4878
tp1759
I2
s(I2457
tp1760
I6
s(I719
tp1761
I64
s(I-393
tp1762
I1
s(I5122
tp1763
I1
s(I2717
tp1764
I2
s(I1987
tp1765
I11
s(I4329
tp1766
I1
s(I938
tp1767
I34
s(I-174
tp1768
I10
s(I2168
tp1769
I5
s(I1198
tp1770
I17
s(I149
tp1771
I1720
s(I3452
tp1772
I1
s(I4808
tp1773
I1
s(I1417
tp1774
I14
s(I3696
tp1775
I5
s(I2663
tp1776
I5
s(I1677
tp1777
I14
s(I884
tp1778
I45
s(I3931
tp1779
I3
s(I-484
tp1780
I1
s(I2882
tp1781
I7
s(I1128
tp1782
I30
s(I4254
tp1783
I2
s(I95
tp1784
I4397
s(I3142
tp1785
I2
s(I-249
tp1786
I3
s(I2093
tp1787
I9
s(I1363
tp1788
I17
s(I314
tp1789
I372
s(I3361
tp1790
I1
s(I1623
tp1791
I13
s(I2312
tp1792
I5
s(I574
tp1793
I120
s(I3621
tp1794
I3
s(I5233
tp1795
I1
s(I2572
tp1796
I4
s(I1842
tp1797
I9
s(I4184
tp1798
I4
s(I793
tp1799
I43
s(I3840
tp1800
I2
s(I-319
tp1801
I1
s(I1053
tp1802
I23
s(I4
tp1803
I1847130
s(I3307
tp1804
I2
s(I-84
tp1805
I151
s(I2258
tp1806
I4
s(I1528
tp1807
I16
s(I495
tp1808
I143
s(I3542
tp1809
I1
s(I1788
tp1810
I7
s(I2493
tp1811
I3
s(I739
tp1812
I63
s(I2737
tp1813
I3
s(I2023
tp1814
I9
s(I4109
tp1815
I1
s(I974
tp1816
I37
s(I4021
tp1817
I2
s(I-138
tp1818
I32
s(I2972
tp1819
I1
s(I1218
tp1820
I16
s(I4584
tp1821
I1
s(I169
tp1822
I1321
s(I3216
tp1823
I2
s(I4844
tp1824
I1
s(I2183
tp1825
I9
s(I1453
tp1826
I14
s(I404
tp1827
I209
s(I2683
tp1828
I1
s(I1697
tp1829
I20
s(I5079
tp1830
I2
s(I648
tp1831
I83
s(I3967
tp1832
I1
s(I2918
tp1833
I5
s(I1932
tp1834
I7
s(I4274
tp1835
I2
s(I115
tp1836
I3016
s(I3162
tp1837
I1
s(I-229
tp1838
I2
s(I2113
tp1839
I5
s(I1399
tp1840
I13
s(I350
tp1841
I341
s(I3397
tp1842
I2
s(I1643
tp1843
I17
s(I4753
tp1844
I1
s(I2348
tp1845
I2
s(I594
tp1846
I107
s(I3641
tp1847
I1
s(I2592
tp1848
I6
s(I1878
tp1849
I9
s(I4220
tp1850
I1
s(I829
tp1851
I51
s(I3876
tp1852
I1
s(I-283
tp1853
I3
s(I2827
tp1854
I9
s(I1073
tp1855
I22
s(I4455
tp1856
I2
s(I24
tp1857
I75799
s(I-64
tp1858
I343
s(I4699
tp1859
I2
s(I2294
tp1860
I4
s(I1308
tp1861
I16
s(I259
tp1862
I545
s(I3562
tp1863
I1
s(I1552
tp1864
I9
s(I-853
tp1865
I1
s(I2513
tp1866
I8
s(I519
tp1867
I116
s(I3822
tp1868
I1
s(I2773
tp1869
I6
s(I2043
tp1870
I8
s(I-618
tp1871
I1
s(I4129
tp1872
I1
s(I994
tp1873
I26
s(I-374
tp1874
I1
s(I2992
tp1875
I4
s(I1254
tp1876
I17
s(I205
tp1877
I901
s(I3252
tp1878
I4
s(I4608
tp1879
I1
s(I2203
tp1880
I9
s(I1473
tp1881
I14
s(I424
tp1882
I205
s(I3487
tp1883
I2
s(I1733
tp1884
I11
s(I2438
tp1885
I4
s(I684
tp1886
I82
s(I-428
tp1887
I1
s(I2938
tp1888
I3
s(I1952
tp1889
I4
s(I4310
tp1890
I1
s(I919
tp1891
I33
s(I3198
tp1892
I3
s(I-193
tp1893
I9
s(I2149
tp1894
I11
s(I1163
tp1895
I19
s(I4529
tp1896
I1
s(I370
tp1897
I287
s(I3417
tp1898
I2
s(I2368
tp1899
I4
s(I630
tp1900
I89
s(I3677
tp1901
I4
s(I2628
tp1902
I4
s(I1898
tp1903
I11
s(I849
tp1904
I44
s(I-263
tp1905
I3
s(I2863
tp1906
I6
s(I1109
tp1907
I28
s(I4475
tp1908
I1
s(I60
tp1909
I11460
s(I3107
tp1910
I1
s(I-28
tp1911
I3761
s(I4735
tp1912
I1
s(I2058
tp1913
I8
s(I1328
tp1914
I14
s(I295
tp1915
I425
s(I1588
tp1916
I15
s(I2549
tp1917
I3
s(I539
tp1918
I124
s(I3586
tp1919
I3
s(I2793
tp1920
I2
s(I1823
tp1921
I8
s(I4165
tp1922
I3
s(I774
tp1923
I41
s(I4077
tp1924
I1
s(I-338
tp1925
I1
s(I3028
tp1926
I3
s(I1274
tp1927
I17
s(I225
tp1928
I760
s(I3272
tp1929
I2
s(I-119
tp1930
I59
s(I2239
tp1931
I10
s(I1509
tp1932
I9
s(I460
tp1933
I187
s(I3507
tp1934
I1
s(I1753
tp1935
I16
s(I2458
tp1936
I6
s(I704
tp1937
I58
s(I3767
tp1938
I1
s(I-408
tp1939
I1
s(I5123
tp1940
I1
s(I2718
tp1941
I1
s(I1988
tp1942
I6
s(I939
tp1943
I27
s(I3986
tp1944
I1
s(I-173
tp1945
I17
s(I2169
tp1946
I10
s(I1199
tp1947
I24
s(I4565
tp1948
I1
s(I150
tp1949
I1750
s(I3453
tp1950
I2
s(I2404
tp1951
I4
s(I1418
tp1952
I19
s(I2648
tp1953
I5
s(I1678
tp1954
I13
s(I885
tp1955
I36
s(I3932
tp1956
I3
s(I2883
tp1957
I3
s(I1129
tp1958
I27
s(I80
tp1959
I6510
s(I3143
tp1960
I3
s(I-8
tp1961
I69217
s(I5523
tp1962
I1
s(I2094
tp1963
I10
s(I1364
tp1964
I16
s(I315
tp1965
I377
s(I3362
tp1966
I2
s(I1608
tp1967
I9
s(I2313
tp1968
I6
s(I575
tp1969
I101
s(I3622
tp1970
I3
s(I2573
tp1971
I6
s(I1843
tp1972
I13
s(I-562
tp1973
I1
s(I794
tp1974
I52
s(I-318
tp1975
I1
s(I3048
tp1976
I2
s(I1054
tp1977
I29
s(I4420
tp1978
I1
s(I5
tp1979
I1691392
s(I3308
tp1980
I3
s(I-83
tp1981
I138
s(I2259
tp1982
I7
s(I1529
tp1983
I8
s(I480
tp1984
I157
s(I3543
tp1985
I2
s(I1789
tp1986
I10
s(I2494
tp1987
I3
s(I740
tp1988
I64
s(I3787
tp1989
I2
s(I5159
tp1990
I2
s(I2738
tp1991
I4
s(I2008
tp1992
I11
s(I975
tp1993
I45
s(I4022
tp1994
I3
s(I-137
tp1995
I22
s(I2973
tp1996
I2
s(I1219
tp1997
I19
s(I4585
tp1998
I2
s(I170
tp1999
I1363
s(I3217
tp2000
I4
s(I2424
tp2001
I7
s(I1454
tp2002
I14
s(I405
tp2003
I212
s(I2684
tp2004
I4
s(I1698
tp2005
I8
s(I649
tp2006
I84
s(I3952
tp2007
I2
s(I2919
tp2008
I5
s(I1933
tp2009
I7
s(I4275
tp2010
I3
s(I116
tp2011
I2870
s(I3163
tp2012
I2
s(I-228
tp2013
I2
s(I2114
tp2014
I5
s(I1384
tp2015
I15
s(I351
tp2016
I337
s(I3398
tp2017
I1
s(I1644
tp2018
I9
s(I2349
tp2019
I4
s(I595
tp2020
I107
s(I3642
tp2021
I3
s(I2593
tp2022
I4
s(I1879
tp2023
I7
s(I4221
tp2024
I1
s(I830
tp2025
I52
s(I3877
tp2026
I2
s(I-282
tp2027
I1
s(I2828
tp2028
I4
s(I1074
tp2029
I27
s(I4440
tp2030
I1
s(I25
tp2031
I69754
s(I3072
tp2032
I2
s(I-63
tp2033
I351
s(I2295
tp2034
I8
s(I1309
tp2035
I14
s(I260
tp2036
I521
s(I3563
tp2037
I2
s(I1553
tp2038
I11
s(I4935
tp2039
I1
s(I2514
tp2040
I5
s(I760
tp2041
I62
s(I3823
tp2042
I2
s(I2774
tp2043
I5
s(I2044
tp2044
I9
s(I995
tp2045
I20
s(I1255
tp2046
I13
s(I4365
tp2047
I3
s(I206
tp2048
I898
s(I4609
tp2049
I1
s(I2204
tp2050
I8
s(I1474
tp2051
I14
s(I425
tp2052
I198
s(I3472
tp2053
I3
s(I1734
tp2054
I9
s(I5100
tp2055
I1
s(I2439
tp2056
I8
s(I685
tp2057
I75
s(I3732
tp2058
I3
s(I2939
tp2059
I4
s(I1953
tp2060
I5
s(I4311
tp2061
I1
s(I904
tp2062
I44
s(I3199
tp2063
I6
s(I-208
tp2064
I9
s(I2150
tp2065
I6
s(I1164
tp2066
I19
s(I371
tp2067
I246
s(I3418
tp2068
I1
s(I4790
tp2069
I1
s(I2369
tp2070
I3
s(I631
tp2071
I100
s(I3678
tp2072
I3
s(I2629
tp2073
I1
s(I1899
tp2074
I3
s(I5009
tp2075
I1
s(I850
tp2076
I40
s(I-262
tp2077
I4
s(I2848
tp2078
I1
s(I1110
tp2079
I31
s(I61
tp2080
I11143
s(I3108
tp2081
I4
s(I-27
tp2082
I4118
s(I4720
tp2083
I1
s(I2059
tp2084
I6
s(I1329
tp2085
I14
s(I280
tp2086
I460
s(I3343
tp2087
I2
s(I1589
tp2088
I12
s(I2550
tp2089
I4
s(I540
tp2090
I123
s(I3587
tp2091
I1
s(I2794
tp2092
I1
s(I1808
tp2093
I14
s(I4166
tp2094
I1
s(I775
tp2095
I55
s(I4078
tp2096
I2
s(I3029
tp2097
I4
s(I1275
tp2098
I22
s(I4385
tp2099
I2
s(I226
tp2100
I719
s(I3273
tp2101
I2
s(I-118
tp2102
I29
s(I2224
tp2103
I6
s(I1510
tp2104
I17
s(I461
tp2105
I152
s(I3508
tp2106
I3
s(I1754
tp2107
I5
s(I4864
tp2108
I2
s(I2459
tp2109
I6
s(I705
tp2110
I79
s(I3752
tp2111
I1
s(I2719
tp2112
I3
s(I1989
tp2113
I7
s(I4331
tp2114
I1
s(I940
tp2115
I37
s(I3987
tp2116
I1
s(I-172
tp2117
I4
s(I2170
tp2118
I5
s(I1184
tp2119
I19
s(I4566
tp2120
I1
s(I151
tp2121
I1710
s(I3454
tp2122
I2
s(I4810
tp2123
I1
s(I2405
tp2124
I5
s(I1419
tp2125
I13
s(I3698
tp2126
I1
s(I2649
tp2127
I4
s(I1679
tp2128
I13
s(I5045
tp2129
I1
s(I886
tp2130
I26
s(I3933
tp2131
I2
s(I5289
tp2132
I1
s(I2884
tp2133
I5
s(I1130
tp2134
I25
s(I81
tp2135
I6147
s(I3128
tp2136
I1
s(I-7
tp2137
I87121
s(I2095
tp2138
I2
s(I1365
tp2139
I14
s(I316
tp2140
I333
s(I3363
tp2141
I1
s(I1609
tp2142
I16
s(I2314
tp2143
I2
s(I560
tp2144
I119
s(I3623
tp2145
I2
s(I2574
tp2146
I5
s(I1844
tp2147
I8
s(I4186
tp2148
I4
s(I795
tp2149
I55
s(I3842
tp2150
I1
s(I-317
tp2151
I1
s(I3049
tp2152
I3
s(I1055
tp2153
I30
s(I6
tp2154
I1242275
s(I-82
tp2155
I159
s(I2260
tp2156
I3
s(I1530
tp2157
I12
s(I481
tp2158
I136
s(I3528
tp2159
I4
s(I1790
tp2160
I12
s(I2495
tp2161
I2
s(I741
tp2162
I63
s(I3788
tp2163
I1
s(I2739
tp2164
I2
s(I2009
tp2165
I4
s(I4111
tp2166
I1
s(I960
tp2167
I35
s(I4023
tp2168
I1
s(I-152
tp2169
I15
s(I2974
tp2170
I5
s(I1220
tp2171
I14
s(I171
tp2172
I1348
s(I3218
tp2173
I4
s(I2425
tp2174
I4
s(I1455
tp2175
I18
s(I406
tp2176
I217
s(I2685
tp2177
I2
s(I1699
tp2178
I11
s(I5065
tp2179
I2
s(I650
tp2180
I86
s(I3953
tp2181
I2
s(I2904
tp2182
I3
s(I1934
tp2183
I5
s(I4276
tp2184
I3
s(I117
tp2185
I2879
s(I3164
tp2186
I2
s(I-227
tp2187
I4
s(I2115
tp2188
I7
s(I1385
tp2189
I7
s(I336
tp2190
I337
s(I1645
tp2191
I15
s(I4755
tp2192
I2
s(I2350
tp2193
I3
s(I596
tp2194
I103
s(I3643
tp2195
I1
s(I2594
tp2196
I2
s(I1864
tp2197
I6
s(I831
tp2198
I51
s(I3878
tp2199
I1
s(I-281
tp2200
I1
s(I2829
tp2201
I3
s(I1075
tp2202
I25
s(I26
tp2203
I65221
s(I3073
tp2204
I1
s(I-62
tp2205
I375
s(I2280
tp2206
I6
s(I1310
tp2207
I17
s(I261
tp2208
I547
s(I3564
tp2209
I5
s(I1554
tp2210
I14
s(I2515
tp2211
I7
s(I761
tp2212
I54
s(I3808
tp2213
I1
s(I2775
tp2214
I2
s(I2045
tp2215
I5
s(I4131
tp2216
I1
s(I996
tp2217
I33
s(I4043
tp2218
I3
s(I-372
tp2219
I1
s(I5415
tp2220
I1
s(I2994
tp2221
I4
s(I1240
tp2222
I21
s(I4366
tp2223
I3
s(I207
tp2224
I902
s(I3254
tp2225
I3
s(I2205
tp2226
I6
s(I1475
tp2227
I9
s(I426
tp2228
I193
s(I3473
tp2229
I5
s(I1735
tp2230
I10
s(I686
tp2231
I76
s(I3733
tp2232
I1
s(I5345
tp2233
I1
s(I2940
tp2234
I4
s(I1954
tp2235
I8
s(I905
tp2236
I40
s(I3184
tp2237
I4
s(I-207
tp2238
I4
s(I2151
tp2239
I11
s(I1165
tp2240
I21
s(I4531
tp2241
I1
s(I372
tp2242
I270
s(I3419
tp2243
I2
s(I4791
tp2244
I1
s(I2370
tp2245
I5
s(I616
tp2246
I80
s(I3679
tp2247
I2
s(I2630
tp2248
I5
s(I1900
tp2249
I5
s(I851
tp2250
I47
s(I3898
tp2251
I1
s(I-261
tp2252
I4
s(I2849
tp2253
I4
s(I1111
tp2254
I29
s(I62
tp2255
I10806
s(I3109
tp2256
I1
s(I-26
tp2257
I4760
s(I4721
tp2258
I2
s(I2060
tp2259
I5
s(I1330
tp2260
I16
s(I281
tp2261
I490
s(I3328
tp2262
I3
s(I1590
tp2263
I7
s(I2551
tp2264
I3
s(I541
tp2265
I112
s(I3588
tp2266
I2
s(I2795
tp2267
I2
s(I1809
tp2268
I9
s(I4167
tp2269
I1
s(I1016
tp2270
I30
s(I-352
tp2271
I4
s(I3030
tp2272
I5
s(I1276
tp2273
I20
s(I227
tp2274
I738
s(I3274
tp2275
I3
s(I-117
tp2276
I45
s(I4646
tp2277
I1
s(I2225
tp2278
I5
s(I1511
tp2279
I12
s(I462
tp2280
I176
s(I3509
tp2281
I2
s(I1755
tp2282
I7
s(I4865
tp2283
I1
s(I2460
tp2284
I6
s(I706
tp2285
I77
s(I3753
tp2286
I2
s(I5125
tp2287
I1
s(I2704
tp2288
I5
s(I1990
tp2289
I8
s(I4332
tp2290
I2
s(I941
tp2291
I42
s(I3988
tp2292
I2
s(I-171
tp2293
I17
s(I2171
tp2294
I5
s(I1185
tp2295
I21
s(I4567
tp2296
I1
s(I136
tp2297
I2027
s(I3455
tp2298
I4
s(I4811
tp2299
I1
s(I2406
tp2300
I6
s(I1420
tp2301
I15
s(I2650
tp2302
I6
s(I1664
tp2303
I8
s(I887
tp2304
I35
s(I3934
tp2305
I3
s(I2885
tp2306
I3
s(I1131
tp2307
I16
s(I82
tp2308
I5906
s(I3129
tp2309
I3
s(I-6
tp2310
I114195
s(I2080
tp2311
I3
s(I1366
tp2312
I16
s(I317
tp2313
I355
s(I3364
tp2314
I4
s(I1610
tp2315
I14
s(I2315
tp2316
I3
s(I561
tp2317
I114
s(I3608
tp2318
I2
s(I5236
tp2319
I1
s(I2575
tp2320
I6
s(I1845
tp2321
I9
s(I796
tp2322
I47
s(I3843
tp2323
I1
s(I-316
tp2324
I3
s(I3050
tp2325
I3
s(I1040
tp2326
I29
s(I4422
tp2327
I1
s(I7
tp2328
I912830
s(I3310
tp2329
I2
s(I-81
tp2330
I163
s(I4666
tp2331
I2
s(I2261
tp2332
I3
s(I1531
tp2333
I17
s(I482
tp2334
I147
s(I3529
tp2335
I2
s(I1791
tp2336
I9
s(I2480
tp2337
I6
s(I742
tp2338
I63
s(I3789
tp2339
I1
s(I2740
tp2340
I1
s(I2010
tp2341
I5
s(I4096
tp2342
I1
s(I961
tp2343
I32
s(I4008
tp2344
I2
s(I-151
tp2345
I16
s(I2975
tp2346
I4
s(I1221
tp2347
I14
s(I172
tp2348
I1276
s(I4847
tp2349
I2
s(I2426
tp2350
I6
s(I1440
tp2351
I12
s(I407
tp2352
I223
s(I2686
tp2353
I7
s(I1700
tp2354
I7
s(I5066
tp2355
I2
s(I651
tp2356
I70
s(I3954
tp2357
I1
s(I5326
tp2358
I1
s(I2905
tp2359
I4
s(I1935
tp2360
I8
s(I118
tp2361
I2778
s(I3165
tp2362
I3
s(I-226
tp2363
I9
s(I5545
tp2364
I1
s(I2116
tp2365
I6
s(I1386
tp2366
I10
s(I4496
tp2367
I1
s(I337
tp2368
I330
s(I3384
tp2369
I1
s(I1646
tp2370
I10
s(I2351
tp2371
I9
s(I597
tp2372
I81
s(I3644
tp2373
I1
s(I2595
tp2374
I7
s(I1865
tp2375
I13
s(I4223
tp2376
I1
s(I816
tp2377
I58
s(I3879
tp2378
I1
s(I-296
tp2379
I1
s(I2830
tp2380
I3
s(I1076
tp2381
I27
s(I4442
tp2382
I3
s(I27
tp2383
I60638
s(I3074
tp2384
I3
s(I-61
tp2385
I374
s(I4702
tp2386
I1
s(I2281
tp2387
I4
s(I1311
tp2388
I19
s(I262
tp2389
I529
s(I3565
tp2390
I6
s(I1555
tp2391
I8
s(I4921
tp2392
I1
s(I2516
tp2393
I8
s(I762
tp2394
I68
s(I3809
tp2395
I3
s(I2760
tp2396
I4
s(I2046
tp2397
I6
s(I4132
tp2398
I1
s(I997
tp2399
I37
s(I4044
tp2400
I2
s(I2995
tp2401
I6
s(I1241
tp2402
I29
s(I4367
tp2403
I1
s(I192
tp2404
I1045
s(I4611
tp2405
I1
s(I2206
tp2406
I7
s(I1476
tp2407
I15
s(I427
tp2408
I202
s(I1720
tp2409
I7
s(I687
tp2410
I82
s(I3734
tp2411
I1
s(I2941
tp2412
I5
s(I1955
tp2413
I6
s(I4297
tp2414
I1
s(I906
tp2415
I30
s(I3185
tp2416
I1
s(I-206
tp2417
I3
s(I2136
tp2418
I8
s(I1166
tp2419
I23
s(I4532
tp2420
I2
s(I373
tp2421
I269
s(I3420
tp2422
I1
s(I2371
tp2423
I7
s(I617
tp2424
I91
s(I3664
tp2425
I2
s(I2631
tp2426
I4
s(I1901
tp2427
I15
s(I5011
tp2428
I1
s(I852
tp2429
I43
s(I3899
tp2430
I1
s(I-260
tp2431
I1
s(I2850
tp2432
I1
s(I1096
tp2433
I30
s(I4478
tp2434
I1
s(I63
tp2435
I10607
s(I3110
tp2436
I3
s(I-25
tp2437
I5233
s(I2061
tp2438
I10
s(I1331
tp2439
I19
s(I282
tp2440
I437
s(I3329
tp2441
I1
s(I1591
tp2442
I15
s(I4957
tp2443
I3
s(I2536
tp2444
I6
s(I542
tp2445
I116
s(I3589
tp2446
I3
s(I2796
tp2447
I4
s(I1810
tp2448
I5
s(I4152
tp2449
I2
s(I1017
tp2450
I30
s(I4064
tp2451
I2
s(I-351
tp2452
I1
s(I3031
tp2453
I3
s(I1277
tp2454
I13
s(I4387
tp2455
I1
s(I228
tp2456
I738
s(I-116
tp2457
I51
s(I2226
tp2458
I7
s(I1496
tp2459
I8
s(I463
tp2460
I155
s(I3510
tp2461
I1
s(I1756
tp2462
I10
s(I2461
tp2463
I6
s(I707
tp2464
I75
s(I3754
tp2465
I3
s(I-405
tp2466
I1
s(I2705
tp2467
I5
s(I1991
tp2468
I9
s(I942
tp2469
I36
s(I3989
tp2470
I2
s(I-170
tp2471
I7
s(I2172
tp2472
I4
s(I1186
tp2473
I27
s(I4552
tp2474
I1
s(I137
tp2475
I2070
s(I4812
tp2476
I1
s(I2407
tp2477
I10
s(I1421
tp2478
I15
s(I3700
tp2479
I1
s(I2651
tp2480
I1
s(I1665
tp2481
I11
s(I872
tp2482
I39
s(I3935
tp2483
I4
s(I2886
tp2484
I1
s(I1132
tp2485
I23
s(I4242
tp2486
I1
s(I83
tp2487
I5847
s(I3130
tp2488
I2
s(I-5
tp2489
I150452
s(I2081
tp2490
I7
s(I1367
tp2491
I20
s(I318
tp2492
I346
s(I3365
tp2493
I2
s(I1611
tp2494
I13
s(I-794
tp2495
I1
s(I2316
tp2496
I8
s(I562
tp2497
I112
s(I3609
tp2498
I1
s(I5237
tp2499
I1
s(I2560
tp2500
I5
s(I1846
tp2501
I8
s(I797
tp2502
I47
s(I3844
tp2503
I2
s(I3051
tp2504
I4
s(I1041
tp2505
I32
s(I248
tp2506
I636
s(I3311
tp2507
I1
s(I-96
tp2508
I89
s(I2262
tp2509
I2
s(I1532
tp2510
I9
s(I483
tp2511
I161
s(I3530
tp2512
I1
s(I1776
tp2513
I11
s(I4902
tp2514
I3
s(I2481
tp2515
I6
s(I743
tp2516
I52
s(I3790
tp2517
I3
s(I5146
tp2518
I1
s(I2741
tp2519
I2
s(I2011
tp2520
I6
s(I962
tp2521
I25
s(I4009
tp2522
I1
s(I-150
tp2523
I14
s(I2960
tp2524
I4
s(I1222
tp2525
I15
s(I4588
tp2526
I1
s(I173
tp2527
I1263
s(I3220
tp2528
I1
s(I2427
tp2529
I5
s(I1441
tp2530
I15
s(I392
tp2531
I242
s(I2687
tp2532
I6
s(I1701
tp2533
I13
s(I652
tp2534
I74
s(I3955
tp2535
I1
s(I-460
tp2536
I1
s(I2906
tp2537
I4
s(I1920
tp2538
I9
s(I119
tp2539
I2729
s(I3166
tp2540
I2
s(I-225
tp2541
I4
s(I2117
tp2542
I4
s(I1387
tp2543
I6
s(I338
tp2544
I334
s(I3385
tp2545
I2
s(I1647
tp2546
I9
s(I4757
tp2547
I3
s(I2336
tp2548
I3
s(I598
tp2549
I82
s(I3645
tp2550
I3
s(I2596
tp2551
I1
s(I1866
tp2552
I3
s(I4208
tp2553
I2
s(I817
tp2554
I37
s(I3864
tp2555
I3
s(I-295
tp2556
I1
s(I2831
tp2557
I2
s(I1077
tp2558
I25
s(I28
tp2559
I57348
s(I3075
tp2560
I4
s(I-60
tp2561
I402
s(I4703
tp2562
I1
s(I2282
tp2563
I7
s(I1296
tp2564
I21
s(I263
tp2565
I586
s(I3566
tp2566
I3
s(I1556
tp2567
I18
s(I2517
tp2568
I7
s(I763
tp2569
I68
s(I3810
tp2570
I1
s(I2761
tp2571
I2
s(I2047
tp2572
I6
s(I998
tp2573
I27
s(I4045
tp2574
I2
s(I2996
tp2575
I2
s(I1242
tp2576
I24
s(I4352
tp2577
I1
s(I193
tp2578
I1032
s(I3240
tp2579
I5
s(I4612
tp2580
I1
s(I2207
tp2581
I3
s(I1477
tp2582
I15
s(I428
tp2583
I195
s(I3475
tp2584
I1
s(I1721
tp2585
I8
s(I672
tp2586
I88
s(I3735
tp2587
I2
s(I-440
tp2588
I1
s(I2942
tp2589
I3
s(I1956
tp2590
I7
s(I4298
tp2591
I2
s(I907
tp2592
I39
s(I3186
tp2593
I4
s(I-205
tp2594
I5
s(I2137
tp2595
I9
s(I1167
tp2596
I31
s(I4533
tp2597
I1
s(I374
tp2598
I209
s(I3421
tp2599
I2
s(I2372
tp2600
I8
s(I618
tp2601
I90
s(I3665
tp2602
I1
s(I2616
tp2603
I5
s(I1902
tp2604
I8
s(I853
tp2605
I47
s(I3900
tp2606
I3
s(I-259
tp2607
I2
s(I2851
tp2608
I7
s(I1097
tp2609
I22
s(I48
tp2610
I18191
s(I3111
tp2611
I3
s(I-40
tp2612
I1334
s(I2062
tp2613
I8
s(I1332
tp2614
I15
s(I283
tp2615
I453
s(I1576
tp2616
I16
s(I4958
tp2617
I1
s(I2537
tp2618
I5
s(I543
tp2619
I113
s(I3590
tp2620
I3
s(I2797
tp2621
I6
s(I1811
tp2622
I4
s(I4153
tp2623
I1
s(I1018
tp2624
I22
s(I4065
tp2625
I3
s(I3016
tp2626
I3
s(I1278
tp2627
I18
s(I229
tp2628
I716
s(I3276
tp2629
I5
s(I-115
tp2630
I61
s(I2227
tp2631
I7
s(I1497
tp2632
I9
s(I448
tp2633
I184
s(I1757
tp2634
I10
s(I4867
tp2635
I1
s(I2462
tp2636
I1
s(I708
tp2637
I76
s(I3755
tp2638
I3
s(I2706
tp2639
I4
s(I1976
tp2640
I6
s(I4334
tp2641
I1
s(I943
tp2642
I32
s(I-169
tp2643
I7
s(I2173
tp2644
I6
s(I1187
tp2645
I23
s(I4553
tp2646
I1
s(I138
tp2647
I2005
s(I3441
tp2648
I1
s(I2392
tp2649
I4
s(I1422
tp2650
I14
s(I3701
tp2651
I2
s(I2652
tp2652
I6
s(I1666
tp2653
I10
s(I873
tp2654
I52
s(I3920
tp2655
I2
s(I5292
tp2656
I1
s(I2887
tp2657
I1
s(I1133
tp2658
I27
s(I84
tp2659
I5732
s(I3131
tp2660
I5
s(I-4
tp2661
I193827
s(I5527
tp2662
I1
s(I2082
tp2663
I4
s(I1352
tp2664
I26
s(I319
tp2665
I312
s(I1612
tp2666
I9
s(I2317
tp2667
I5
s(I563
tp2668
I124
s(I2561
tp2669
I3
s(I1847
tp2670
I8
s(I-574
tp2671
I1
s(I4189
tp2672
I2
s(I798
tp2673
I66
s(I3845
tp2674
I4
s(I3052
tp2675
I6
s(I1042
tp2676
I24
s(I4408
tp2677
I1
s(I249
tp2678
I663
s(I3296
tp2679
I1
s(I-95
tp2680
I94
s(I2263
tp2681
I6
s(I1533
tp2682
I12
s(I484
tp2683
I149
s(I1777
tp2684
I10
s(I2482
tp2685
I3
s(I728
tp2686
I71
s(I3791
tp2687
I2
s(I2742
tp2688
I5
s(I2012
tp2689
I9
s(I963
tp2690
I35
s(I-149
tp2691
I20
s(I2961
tp2692
I3
s(I1223
tp2693
I18
s(I4589
tp2694
I1
s(I174
tp2695
I1279
s(I3221
tp2696
I3
s(I2428
tp2697
I9
s(I1442
tp2698
I11
s(I393
tp2699
I212
s(I2672
tp2700
I1
s(I1702
tp2701
I10
s(I653
tp2702
I96
s(I3956
tp2703
I2
s(I5312
tp2704
I1
s(I2907
tp2705
I5
s(I1921
tp2706
I4
s(I4279
tp2707
I2
s(I104
tp2708
I3675
s(I3167
tp2709
I1
s(I-240
tp2710
I2
s(I2118
tp2711
I5
s(I1388
tp2712
I15
s(I339
tp2713
I285
s(I3386
tp2714
I4
s(I1632
tp2715
I11
s(I4758
tp2716
I2
s(I2337
tp2717
I7
s(I599
tp2718
I111
s(I3646
tp2719
I1
s(I2597
tp2720
I5
s(I1867
tp2721
I9
s(I818
tp2722
I57
s(I3865
tp2723
I2
s(I-294
tp2724
I1
s(I2816
tp2725
I1
s(I1078
tp2726
I17
s(I29
tp2727
I53809
s(I3076
tp2728
I2
s(I-59
tp2729
I468
s(I4688
tp2730
I1
s(I2283
tp2731
I6
s(I1297
tp2732
I23
s(I504
tp2733
I144
s(I3567
tp2734
I3
s(I1557
tp2735
I12
s(I2518
tp2736
I5
s(I764
tp2737
I48
s(I2762
tp2738
I2
s(I2032
tp2739
I6
s(I4134
tp2740
I2
s(I999
tp2741
I32
s(I4046
tp2742
I1
s(I2997
tp2743
I2
s(I1243
tp2744
I25
s(I4353
tp2745
I1
s(I194
tp2746
I1016
s(I3241
tp2747
I1
s(I4613
tp2748
I2
s(I2192
tp2749
I6
s(I1478
tp2750
I17
s(I429
tp2751
I201
s(I3476
tp2752
I3
s(I1722
tp2753
I14
s(I673
tp2754
I58
s(I3720
tp2755
I1
s(I2943
tp2756
I4
s(I1957
tp2757
I6
s(I908
tp2758
I41
s(I3187
tp2759
I4
s(I-204
tp2760
I8
s(I2138
tp2761
I5
s(I1152
tp2762
I16
s(I4534
tp2763
I2
s(I375
tp2764
I238
s(I4778
tp2765
I1
s(I2373
tp2766
I4
s(I619
tp2767
I93
s(I3666
tp2768
I1
s(I2617
tp2769
I7
s(I1903
tp2770
I5
s(I854
tp2771
I37
s(I-258
tp2772
I4
s(I2852
tp2773
I4
s(I1098
tp2774
I28
s(I49
tp2775
I17554
s(I3096
tp2776
I3
s(I-39
tp2777
I1468
s(I2063
tp2778
I6
s(I1333
tp2779
I12
s(I284
tp2780
I450
s(I5992
tp2781
I1
s(I1577
tp2782
I12
s(I4959
tp2783
I1
s(I2538
tp2784
I2
s(I528
tp2785
I131
s(I3591
tp2786
I3
s(I2798
tp2787
I4
s(I1812
tp2788
I8
s(I4154
tp2789
I1
s(I1019
tp2790
I27
s(I4066
tp2791
I2
s(I-349
tp2792
I1
s(I3017
tp2793
I4
s(I1279
tp2794
I14
s(I230
tp2795
I690
s(I3277
tp2796
I3
s(I-114
tp2797
I47
s(I4633
tp2798
I1
s(I2228
tp2799
I5
s(I1498
tp2800
I10
s(I449
tp2801
I158
s(I3496
tp2802
I3
s(I1758
tp2803
I12
s(I4868
tp2804
I1
s(I2463
tp2805
I4
s(I709
tp2806
I66
s(I-1712
tp2807
I1
s(I3756
tp2808
I3
s(I2707
tp2809
I3
s(I1977
tp2810
I7
s(I4335
tp2811
I1
s(I928
tp2812
I34
s(I3991
tp2813
I3
s(I-184
tp2814
I10
s(I2174
tp2815
I8
s(I1188
tp2816
I18
s(I139
tp2817
I2006
s(I3442
tp2818
I1
s(I2393
tp2819
I6
s(I1423
tp2820
I15
s(I3702
tp2821
I1
s(I2653
tp2822
I8
s(I1667
tp2823
I13
s(I874
tp2824
I34
s(I5293
tp2825
I1
s(I2872
tp2826
I4
s(I1134
tp2827
I25
s(I4244
tp2828
I2
s(I85
tp2829
I5628
s(I-3
tp2830
I230831
s(I2083
tp2831
I2
s(I1353
tp2832
I13
s(I304
tp2833
I430
s(I3367
tp2834
I3
s(I1613
tp2835
I11
s(I2318
tp2836
I5
s(I564
tp2837
I118
s(I2562
tp2838
I1
s(I1832
tp2839
I4
s(I4190
tp2840
I2
s(I799
tp2841
I53
s(I3846
tp2842
I1
s(I-313
tp2843
I1
s(I3053
tp2844
I6
s(I1043
tp2845
I21
s(I4409
tp2846
I1
s(I250
tp2847
I629
s(I3297
tp2848
I5
s(I-94
tp2849
I115
s(I4669
tp2850
I1
s(I2248
tp2851
I10
s(I1534
tp2852
I15
s(I485
tp2853
I161
s(I3532
tp2854
I1
s(I1778
tp2855
I15
s(I2483
tp2856
I4
s(I729
tp2857
I69
s(I3776
tp2858
I3
s(I2743
tp2859
I2
s(I2013
tp2860
I10
s(I4099
tp2861
I3
s(I964
tp2862
I30
s(I4011
tp2863
I2
s(I-148
tp2864
I25
s(I5383
tp2865
I1
s(I2962
tp2866
I9
s(I1208
tp2867
I22
s(I4590
tp2868
I1
s(I175
tp2869
I1303
s(I3222
tp2870
I4
s(I4834
tp2871
I1
s(I2429
tp2872
I4
s(I1443
tp2873
I25
s(I394
tp2874
I235
s(I2673
tp2875
I9
s(I1703
tp2876
I12
s(I5069
tp2877
I1
s(I654
tp2878
I86
s(I3957
tp2879
I2
s(I1922
tp2880
I7
s(I4264
tp2881
I1
s(I105
tp2882
I3511
s(I3152
tp2883
I4
s(I-239
tp2884
I6
s(I2119
tp2885
I11
s(I1389
tp2886
I23
s(I340
tp2887
I331
s(I1633
tp2888
I9
s(I2338
tp2889
I4
s(I584
tp2890
I93
s(I2598
tp2891
I8
s(I1868
tp2892
I11
s(I4210
tp2893
I1
s(I819
tp2894
I39
s(I3866
tp2895
I1
s(I-293
tp2896
I2
s(I2817
tp2897
I6
s(I1079
tp2898
I26
s(I30
tp2899
I49167
s(I3077
tp2900
I2
s(I-58
tp2901
I438
s(I2284
tp2902
I12
s(I1298
tp2903
I25
s(I505
tp2904
I130
s(I3552
tp2905
I4
s(I1558
tp2906
I11
s(I2519
tp2907
I6
s(I765
tp2908
I65
s(I3812
tp2909
I1
s(I2763
tp2910
I6
s(I2033
tp2911
I5
s(I984
tp2912
I41
s(I5403
tp2913
I1
s(I2998
tp2914
I4
s(I1244
tp2915
I16
s(I4354
tp2916
I2
s(I195
tp2917
I975
s(I3242
tp2918
I2
s(I4614
tp2919
I2
s(I2193
tp2920
I6
s(I1479
tp2921
I15
s(I430
tp2922
I186
s(I3477
tp2923
I1
s(I1723
tp2924
I12
s(I674
tp2925
I80
s(I3721
tp2926
I3
s(I-438
tp2927
I1
s(I2928
tp2928
I5
s(I1958
tp2929
I8
s(I4300
tp2930
I2
s(I909
tp2931
I49
s(I3188
tp2932
I2
s(I-203
tp2933
I5
s(I2139
tp2934
I7
s(I1153
tp2935
I18
s(I4535
tp2936
I3
s(I360
tp2937
I281
s(I3423
tp2938
I3
s(I4779
tp2939
I1
s(I2374
tp2940
I6
s(I620
tp2941
I107
s(I3667
tp2942
I2
s(I2618
tp2943
I3
s(I1888
tp2944
I10
s(I855
tp2945
I32
s(I3902
tp2946
I4
s(I-257
tp2947
I3
s(I1099
tp2948
I23
s(I4465
tp2949
I2
s(I50
tp2950
I16856
s(I-38
tp2951
I1662
s(I4725
tp2952
I1
s(I2048
tp2953
I6
s(I1334
tp2954
I15
s(I285
tp2955
I458
s(I3332
tp2956
I1
s(I1578
tp2957
I9
s(I2539
tp2958
I4
s(I529
tp2959
I119
s(I3832
tp2960
I2
s(I2799
tp2961
I3
s(I1813
tp2962
I12
s(I4155
tp2963
I2
s(I1020
tp2964
I24
s(I4067
tp2965
I1
s(I3018
tp2966
I9
s(I1264
tp2967
I22
s(I4390
tp2968
I1
s(I231
tp2969
I686
s(I-113
tp2970
I48
s(I4634
tp2971
I1
s(I2229
tp2972
I9
s(I1499
tp2973
I11
s(I450
tp2974
I185
s(I3497
tp2975
I4
s(I1759
tp2976
I11
s(I4869
tp2977
I1
s(I2448
tp2978
I5
s(I710
tp2979
I63
s(I-402
tp2980
I1
s(I2708
tp2981
I4
s(I1978
tp2982
I5
s(I4320
tp2983
I2
s(I929
tp2984
I33
s(I3976
tp2985
I1
s(I-183
tp2986
I10
s(I2175
tp2987
I7
s(I1189
tp2988
I23
s(I140
tp2989
I1998
s(I3443
tp2990
I2
s(I4815
tp2991
I1
s(I2394
tp2992
I6
s(I1408
tp2993
I12
s(I2654
tp2994
I5
s(I1668
tp2995
I15
s(I875
tp2996
I40
s(I3922
tp2997
I1
s(I2873
tp2998
I4
s(I1135
tp2999
I26
s(I86
tp3000
I5366
s(I3133
tp3001
I3
s(I-1
tp3002
I864550
s(I2084
tp3003
I8
s(I1354
tp3004
I24
s(I305
tp3005
I396
s(I3352
tp3006
I2
s(I1614
tp3007
I11
s(I2319
tp3008
I4
s(I565
tp3009
I115
s(I3612
tp3010
I2
s(I5224
tp3011
I1
s(I2563
tp3012
I2
s(I1833
tp3013
I11
s(I4191
tp3014
I1
s(I784
tp3015
I41
s(I3847
tp3016
I1
s(I3054
tp3017
I3
s(I1044
tp3018
I37
s(I251
tp3019
I575
s(I3298
tp3020
I3
s(I-93
tp3021
I76
s(I4670
tp3022
I1
s(I2249
tp3023
I3
s(I1535
tp3024
I12
s(I486
tp3025
I168
s(I3533
tp3026
I1
s(I1779
tp3027
I4
s(I2484
tp3028
I4
s(I730
tp3029
I83
s(I3777
tp3030
I2
s(I2728
tp3031
I3
s(I2014
tp3032
I6
s(I4100
tp3033
I3
s(I965
tp3034
I42
s(I4012
tp3035
I2
s(I-147
tp3036
I26
s(I2963
tp3037
I5
s(I1209
tp3038
I22
s(I160
tp3039
I1454
s(I3223
tp3040
I4
s(I4835
tp3041
I1
s(I2430
tp3042
I5
s(I1444
tp3043
I14
s(I395
tp3044
I252
s(I2674
tp3045
I5
s(I1688
tp3046
I12
s(I655
tp3047
I83
s(I3958
tp3048
I2
s(I5314
tp3049
I1
s(I2909
tp3050
I6
s(I1923
tp3051
I7
s(I4265
tp3052
I5
s(I106
tp3053
I3404
s(I3153
tp3054
I3
s(I-238
tp3055
I3
s(I2104
tp3056
I4
s(I1390
tp3057
I18
s(I4500
tp3058
I1
s(I341
tp3059
I307
s(I3388
tp3060
I2
s(I1634
tp3061
I12
s(I2339
tp3062
I7
s(I585
tp3063
I102
s(I3632
tp3064
I2
s(I2599
tp3065
I4
s(I1869
tp3066
I6
s(I4211
tp3067
I1
s(I820
tp3068
I52
s(I3867
tp3069
I3
s(I-292
tp3070
I3
s(I2818
tp3071
I4
s(I1064
tp3072
I21
s(I31
tp3073
I43288
s(I3078
tp3074
I5
s(I-57
tp3075
I470
s(I4690
tp3076
I2
s(I2285
tp3077
I5
s(I1299
tp3078
I13
s(I506
tp3079
I131
s(I3553
tp3080
I3
s(I1559
tp3081
I11
s(I4925
tp3082
I1
s(I2504
tp3083
I1
s(I766
tp3084
I55
s(I3813
tp3085
I2
s(I2764
tp3086
I3
s(I2034
tp3087
I9
s(I4120
tp3088
I1
s(I985
tp3089
I39
s(I4032
tp3090
I3
s(I2999
tp3091
I4
s(I1245
tp3092
I25
s(I4355
tp3093
I1
s(I196
tp3094
I990
s(I3243
tp3095
I2
s(I2194
tp3096
I9
s(I1464
tp3097
I10
s(I431
tp3098
I208
s(I3478
tp3099
I2
s(I1724
tp3100
I10
s(I675
tp3101
I77
s(I3722
tp3102
I3
s(I2929
tp3103
I1
s(I1959
tp3104
I12
s(I4301
tp3105
I2
s(I910
tp3106
I46
s(I3189
tp3107
I2
s(I-202
tp3108
I9
s(I2140
tp3109
I5
s(I1154
tp3110
I22
s(I4520
tp3111
I1
s(I361
tp3112
I280
s(I3408
tp3113
I4
s(I2375
tp3114
I5
s(I621
tp3115
I83
s(I3668
tp3116
I1
s(I2619
tp3117
I4
s(I1889
tp3118
I3
s(I840
tp3119
I57
s(I3903
tp3120
I1
s(I-272
tp3121
I4
s(I5259
tp3122
I1
s(I2854
tp3123
I4
s(I1100
tp3124
I24
s(I4466
tp3125
I2
s(I51
tp3126
I16248
s(I3098
tp3127
I1
s(I-37
tp3128
I1745
s(I4726
tp3129
I1
s(I2049
tp3130
I9
s(I1335
tp3131
I15
s(I286
tp3132
I497
s(I3333
tp3133
I5
s(I1579
tp3134
I13
s(I4945
tp3135
I1
s(I2540
tp3136
I7
s(I530
tp3137
I132
s(I3833
tp3138
I1
s(I5205
tp3139
I1
s(I2784
tp3140
I3
s(I1814
tp3141
I7
s(I4156
tp3142
I1
s(I1021
tp3143
I25
s(I4068
tp3144
I1
s(I-347
tp3145
I2
s(I3019
tp3146
I2
s(I1265
tp3147
I13
s(I4391
tp3148
I2
s(I216
tp3149
I772
s(I3279
tp3150
I3
s(I-128
tp3151
I32
s(I4635
tp3152
I1
s(I2230
tp3153
I9
s(I1500
tp3154
I13
s(I451
tp3155
I148
s(I3498
tp3156
I3
s(I1744
tp3157
I11
s(I2449
tp3158
I6
s(I711
tp3159
I69
s(I3758
tp3160
I1
s(I-401
tp3161
I1
s(I2709
tp3162
I4
s(I1979
tp3163
I6
s(I4321
tp3164
I2
s(I930
tp3165
I48
s(I3977
tp3166
I3
s(I-182
tp3167
I8
s(I2160
tp3168
I6
s(I1190
tp3169
I19
s(I4556
tp3170
I1
s(I141
tp3171
I1965
s(I5849
tp3172
I1
s(I3444
tp3173
I4
s(I2395
tp3174
I2
s(I1409
tp3175
I16
s(I3688
tp3176
I1
s(I2655
tp3177
I6
s(I1669
tp3178
I14
s(I5035
tp3179
I1
s(I876
tp3180
I49
s(I2874
tp3181
I4
s(I1120
tp3182
I24
s(I87
tp3183
I5367
s(I3134
tp3184
I1
s(I2085
tp3185
I9
s(I1355
tp3186
I17
s(I306
tp3187
I379
s(I3353
tp3188
I5
s(I1615
tp3189
I12
s(I4981
tp3190
I1
s(I2304
tp3191
I4
s(I566
tp3192
I124
s(I3613
tp3193
I3
s(I5225
tp3194
I1
s(I2564
tp3195
I7
s(I1834
tp3196
I7
s(I785
tp3197
I50
s(I4088
tp3198
I2
s(I-327
tp3199
I1
s(I3055
tp3200
I2
s(I1045
tp3201
I25
s(I252
tp3202
I564
s(I3299
tp3203
I3
s(I-92
tp3204
I102
s(I4671
tp3205
I1
s(I2250
tp3206
I3
s(I1520
tp3207
I18
s(I487
tp3208
I153
s(I3534
tp3209
I1
s(I1780
tp3210
I11
s(I2485
tp3211
I6
s(I731
tp3212
I60
s(I3778
tp3213
I5
s(I5150
tp3214
I1
s(I2729
tp3215
I2
s(I2015
tp3216
I4
s(I4101
tp3217
I2
s(I966
tp3218
I31
s(I4013
tp3219
I1
s(I-146
tp3220
I24
s(I2964
tp3221
I2
s(I1210
tp3222
I25
s(I4576
tp3223
I1
s(I161
tp3224
I1576
s(I3208
tp3225
I2
s(I4836
tp3226
I1
s(I2431
tp3227
I7
s(I1445
tp3228
I16
s(I396
tp3229
I232
s(I1689
tp3230
I7
s(I5071
tp3231
I2
s(I640
tp3232
I85
s(I2910
tp3233
I5
s(I1924
tp3234
I12
s(I107
tp3235
I3444
s(I3154
tp3236
I2
s(I-237
tp3237
I8
s(I2105
tp3238
I9
s(I1391
tp3239
I19
s(I342
tp3240
I309
s(I3389
tp3241
I3
s(I1635
tp3242
I10
s(I2340
tp3243
I2
s(I586
tp3244
I97
s(I3633
tp3245
I2
s(I2584
tp3246
I4
s(I1870
tp3247
I10
s(I821
tp3248
I50
s(I3868
tp3249
I2
s(I-291
tp3250
I1
s(I2819
tp3251
I1
s(I1065
tp3252
I24
s(I4447
tp3253
I2
s(I16
tp3254
I172482
s(I3079
tp3255
I7
s(I-72
tp3256
I247
s(I2286
tp3257
I6
s(I1300
tp3258
I13
s(I507
tp3259
I118
s(I3554
tp3260
I3
s(I1544
tp3261
I7
s(I2505
tp3262
I8
s(I-2
tp3263
I433959
s(I767
tp3264
I53
s(I2765
tp3265
I5
s(I2035
tp3266
I7
s(I4121
tp3267
I3
s(I986
tp3268
I29
s(I4033
tp3269
I1
s(I2984
tp3270
I8
s(I1246
tp3271
I23
s(I4356
tp3272
I2
s(I197
tp3273
I965
s(I3244
tp3274
I4
s(I2195
tp3275
I7
s(I1465
tp3276
I17
s(I416
tp3277
I212
s(I3479
tp3278
I3
s(I1725
tp3279
I11
s(I676
tp3280
I73
s(I3723
tp3281
I3
s(I2930
tp3282
I6
s(I1944
tp3283
I14
s(I4302
tp3284
I1
s(I911
tp3285
I39
s(I3190
tp3286
I5
s(I-201
tp3287
I10
s(I5570
tp3288
I1
s(I2141
tp3289
I6
s(I1155
tp3290
I22
s(I4521
tp3291
I1
s(I362
tp3292
I293
s(I3409
tp3293
I4
s(I2360
tp3294
I5
s(I622
tp3295
I102
s(I3669
tp3296
I1
s(I2620
tp3297
I5
s(I1890
tp3298
I11
s(I841
tp3299
I40
s(I-271
tp3300
I1
s(I5260
tp3301
I1
s(I2855
tp3302
I4
s(I1101
tp3303
I24
s(I4467
tp3304
I1
s(I52
tp3305
I15697
s(I3099
tp3306
I5
s(I-36
tp3307
I1907
s(I2050
tp3308
I5
s(I1320
tp3309
I19
s(I287
tp3310
I450
s(I3334
tp3311
I3
s(I1580
tp3312
I10
s(I4946
tp3313
I1
s(I2541
tp3314
I5
s(I531
tp3315
I103
s(I3834
tp3316
I1
s(I5206
tp3317
I1
s(I2785
tp3318
I3
s(I1815
tp3319
I11
s(I1022
tp3320
I27
s(I4069
tp3321
I1
s(I3020
tp3322
I1
s(I1266
tp3323
I18
s(I4376
tp3324
I1
s(I217
tp3325
I772
s(I3264
tp3326
I1
s(I-127
tp3327
I45
s(I4636
tp3328
I1
s(I2231
tp3329
I4
s(I1501
tp3330
I16
s(I452
tp3331
I184
s(I1745
tp3332
I13
s(I2450
tp3333
I6
s(I696
tp3334
I66
s(I3759
tp3335
I2
s(I2710
tp3336
I2
s(I1980
tp3337
I8
s(I4322
tp3338
I1
s(I931
tp3339
I29
s(I3978
tp3340
I1
s(I-181
tp3341
I8
s(I2161
tp3342
I6
s(I1191
tp3343
I18
s(I142
tp3344
I1861
s(I3445
tp3345
I1
s(I4801
tp3346
I1
s(I2396
tp3347
I8
s(I1410
tp3348
I13
s(I3689
tp3349
I2
s(I2640
tp3350
I1
s(I1670
tp3351
I11
s(I877
tp3352
I46
s(I1121
tp3353
I19
s(I4247
tp3354
I2
s(I72
tp3355
I7834
s(I3135
tp3356
I7
s(I-16
tp3357
I15853
s(I5515
tp3358
I1
s(I2086
tp3359
I7
s(I1356
tp3360
I17
s(I307
tp3361
I399
s(I3354
tp3362
I3
s(I1600
tp3363
I15
s(I4982
tp3364
I1
s(I2305
tp3365
I6
s(I567
tp3366
I101
s(I3614
tp3367
I2
s(I2565
tp3368
I7
s(I1835
tp3369
I7
s(I-570
tp3370
I1
s(I4177
tp3371
I1
s(I786
tp3372
I63
s(I4089
tp3373
I3
s(I-326
tp3374
I1
s(I3040
tp3375
I4
s(I1046
tp3376
I30
s(I4412
tp3377
I2
s(I253
tp3378
I530
s(I3300
tp3379
I1
s(I-91
tp3380
I111
s(I4656
tp3381
I2
s(I2251
tp3382
I3
s(I1521
tp3383
I14
s(I472
tp3384
I176
s(I3535
tp3385
I2
s(I1781
tp3386
I8
s(I4891
tp3387
I1
s(I2486
tp3388
I4
s(I732
tp3389
I57
s(I2730
tp3390
I2
s(I2000
tp3391
I7
s(I967
tp3392
I37
s(I4014
tp3393
I1
s(I-145
tp3394
I18
s(I2965
tp3395
I5
s(I1211
tp3396
I20
s(I162
tp3397
I1405
s(I3209
tp3398
I2
s(I2416
tp3399
I6
s(I1446
tp3400
I15
s(I397
tp3401
I234
s(I2676
tp3402
I2
s(I1690
tp3403
I16
s(I641
tp3404
I75
s(I3944
tp3405
I2
s(I5316
tp3406
I1
s(I2911
tp3407
I4
s(I1925
tp3408
I7
s(I4267
tp3409
I1
s(I108
tp3410
I3377
s(I3155
tp3411
I4
s(I-236
tp3412
I4
s(I2106
tp3413
I4
s(I1376
tp3414
I10
s(I4502
tp3415
I2
s(I343
tp3416
I342
s(I3390
tp3417
I3
s(I1636
tp3418
I8
s(I2341
tp3419
I6
s(I587
tp3420
I98
s(I3634
tp3421
I6
s(I2585
tp3422
I2
s(I1871
tp3423
I12
s(I822
tp3424
I54
s(I3869
tp3425
I2
s(I-290
tp3426
I4
s(I2820
tp3427
I4
s(I1066
tp3428
I29
s(I17
tp3429
I153185
s(I5741
tp3430
I1
s(I3320
tp3431
I2
s(I-71
tp3432
I245
s(I2287
tp3433
I8
s(I1301
tp3434
I16
s(I508
tp3435
I135
s(I3555
tp3436
I1
s(I1545
tp3437
I9
s(I4927
tp3438
I1
s(I2506
tp3439
I4
s(I752
tp3440
I84
s(I3815
tp3441
I2
s(I2766
tp3442
I3
s(I2036
tp3443
I4
s(I987
tp3444
I40
s(I4034
tp3445
I2
s(I-381
tp3446
I1
s(I2985
tp3447
I1
s(I1247
tp3448
I26
s(I4357
tp3449
I2
s(I198
tp3450
I986
s(I4857
tp3451
I1
s(I2196
tp3452
I10
s(I1466
tp3453
I13
s(I417
tp3454
I199
s(I3464
tp3455
I1
s(I1726
tp3456
I12
s(I677
tp3457
I62
s(I3724
tp3458
I4
s(I2931
tp3459
I2
s(I1945
tp3460
I6
s(I4303
tp3461
I1
s(I896
tp3462
I40
s(I-216
tp3463
I6
s(I2142
tp3464
I7
s(I1156
tp3465
I22
s(I363
tp3466
I279
s(I3410
tp3467
I3
s(I1656
tp3468
I12
s(I2361
tp3469
I1
s(I623
tp3470
I83
s(I3670
tp3471
I2
s(I2621
tp3472
I2
s(I1891
tp3473
I7
s(I842
tp3474
I54
s(I3889
tp3475
I4
s(I-270
tp3476
I3
s(I5261
tp3477
I1
s(I2840
tp3478
I2
s(I1102
tp3479
I21
s(I4468
tp3480
I1
s(I53
tp3481
I15064
s(I3100
tp3482
I4
s(I-35
tp3483
I2151
s(I2051
tp3484
I7
s(I1321
tp3485
I25
s(I272
tp3486
I530
s(I3335
tp3487
I2
s(I1581
tp3488
I12
s(I2542
tp3489
I5
s(I532
tp3490
I113
s(I3835
tp3491
I1
s(I2786
tp3492
I1
s(I1800
tp3493
I9
s(I1023
tp3494
I24
s(I4070
tp3495
I3
s(I3021
tp3496
I1
s(I1267
tp3497
I17
s(I4377
tp3498
I2
s(I218
tp3499
I811
s(I3265
tp3500
I3
s(I-126
tp3501
I44
s(I4637
tp3502
I1
s(I2216
tp3503
I4
s(I1502
tp3504
I17
s(I453
tp3505
I192
s(I1746
tp3506
I10
s(I2451
tp3507
I3
s(I697
tp3508
I72
s(I3744
tp3509
I1
s(I2711
tp3510
I2
s(I1981
tp3511
I4
s(I932
tp3512
I46
s(I-180
tp3513
I7
s(I2162
tp3514
I5
s(I1176
tp3515
I21
s(I143
tp3516
I1862
s(I3446
tp3517
I2
s(I2397
tp3518
I4
s(I1411
tp3519
I20
s(I3690
tp3520
I2
s(I2641
tp3521
I4
s(I1671
tp3522
I12
s(I878
tp3523
I40
s(I2876
tp3524
I9
s(I1122
tp3525
I24
s(I4232
tp3526
I3
s(I73
tp3527
I7660
s(I3120
tp3528
I4
s(I-15
tp3529
I18185
s(I2087
tp3530
I8
s(I1357
tp3531
I19
s(I308
tp3532
I371
s(I3355
tp3533
I1
s(I1601
tp3534
I10
s(I2306
tp3535
I7
s(I552
tp3536
I96
s(I3615
tp3537
I1
s(I2566
tp3538
I3
s(I1836
tp3539
I10
s(I-569
tp3540
I1
s(I4178
tp3541
I1
s(I787
tp3542
I67
s(I-325
tp3543
I1
s(I3041
tp3544
I4
s(I1047
tp3545
I28
s(I4413
tp3546
I1
s(I254
tp3547
I560
s(I3301
tp3548
I4
s(I-90
tp3549
I104
s(I2252
tp3550
I10
s(I1522
tp3551
I12
s(I473
tp3552
I144
s(I3520
tp3553
I3
s(I1782
tp3554
I11
s(I2487
tp3555
I6
s(I733
tp3556
I77
s(I2731
tp3557
I3
s(I2001
tp3558
I5
s(I-1428
tp3559
I1
s(I952
tp3560
I42
s(I-160
tp3561
I18
s(I2966
tp3562
I3
s(I1212
tp3563
I27
s(I4578
tp3564
I4
s(I163
tp3565
I1477
s(I3210
tp3566
I3
s(I4838
tp3567
I1
s(I2417
tp3568
I5
s(I1447
tp3569
I18
s(I398
tp3570
I225
s(I2677
tp3571
I3
s(I1691
tp3572
I13
s(I5057
tp3573
I1
s(I642
tp3574
I85
s(I3945
tp3575
I2
s(I2896
tp3576
I4
s(I1926
tp3577
I5
s(I109
tp3578
I3307
s(I3156
tp3579
I1
s(I-235
tp3580
I2
s(I2107
tp3581
I9
s(I1377
tp3582
I16
s(I328
tp3583
I365
s(I3391
tp3584
I2
s(I1637
tp3585
I11
s(I2342
tp3586
I3
s(I588
tp3587
I101
s(I3635
tp3588
I2
s(I1856
tp3589
I7
s(I-549
tp3590
I1
s(I4214
tp3591
I4
s(I823
tp3592
I53
s(I3870
tp3593
I3
s(I2821
tp3594
I1
s(I1067
tp3595
I33
s(I4433
tp3596
I1
s(I18
tp3597
I136026
s(I3321
tp3598
I2
s(I-70
tp3599
I239
s(I2272
tp3600
I3
s(I1302
tp3601
I16
s(I509
tp3602
I114
s(I1546
tp3603
I5
s(I4912
tp3604
I2
s(I2507
tp3605
I4
s(I753
tp3606
I55
s(I3800
tp3607
I2
s(I2767
tp3608
I1
s(I2037
tp3609
I5
s(I-640
tp3610
I1
s(I4123
tp3611
I2
s(I988
tp3612
I38
s(I2986
tp3613
I1
s(I1232
tp3614
I25
s(I199
tp3615
I942
s(I3246
tp3616
I4
s(I-913
tp3617
I1
s(I2197
tp3618
I10
s(I1467
tp3619
I15
s(I418
tp3620
I206
s(I1727
tp3621
I10
s(I5093
tp3622
I1
s(I678
tp3623
I82
s(I3725
tp3624
I1
s(I2932
tp3625
I5
s(I1946
tp3626
I7
s(I897
tp3627
I43
s(I3176
tp3628
I4
s(I-215
tp3629
I7
s(I2143
tp3630
I10
s(I1157
tp3631
I19
s(I4523
tp3632
I1
s(I364
tp3633
I288
s(I3411
tp3634
I4
s(I1657
tp3635
I6
s(I2362
tp3636
I1
s(I608
tp3637
I89
s(I3671
tp3638
I1
s(I2622
tp3639
I5
s(I1892
tp3640
I6
s(I5002
tp3641
I1
s(I843
tp3642
I54
s(I3890
tp3643
I2
s(I-269
tp3644
I1
s(I5262
tp3645
I1
s(I2841
tp3646
I5
s(I1103
tp3647
I35
s(I4469
tp3648
I2
s(I54
tp3649
I14415
s(I3101
tp3650
I6
s(I-34
tp3651
I2298
s(I4713
tp3652
I2
s(I2052
tp3653
I9
s(I1322
tp3654
I17
s(I273
tp3655
I508
s(I3576
tp3656
I3
s(I1582
tp3657
I11
s(I2543
tp3658
I3
s(I533
tp3659
I131
s(I3836
tp3660
I1
s(I2787
tp3661
I5
s(I1801
tp3662
I8
s(I4159
tp3663
I2
s(I1008
tp3664
I34
s(I4071
tp3665
I1
s(I-360
tp3666
I1
s(I5427
tp3667
I1
s(I3022
tp3668
I4
s(I1268
tp3669
I21
s(I4378
tp3670
I2
s(I219
tp3671
I787
s(I3266
tp3672
I2
s(I-125
tp3673
I45
s(I2217
tp3674
I6
s(I1503
tp3675
I10
s(I454
tp3676
I180
s(I3501
tp3677
I1
s(I1747
tp3678
I11
s(I2452
tp3679
I2
s(I698
tp3680
I69
s(I3745
tp3681
I4
s(I-414
tp3682
I1
s(I2696
tp3683
I3
s(I1982
tp3684
I6
s(I4324
tp3685
I1
s(I933
tp3686
I49
s(I3980
tp3687
I1
s(I-179
tp3688
I17
s(I2163
tp3689
I6
s(I1177
tp3690
I19
s(I4559
tp3691
I1
s(I128
tp3692
I2436
s(I3447
tp3693
I1
s(I2398
tp3694
I6
s(I1412
tp3695
I11
s(I3691
tp3696
I1
s(I2642
tp3697
I1
s(I1912
tp3698
I13
s(I879
tp3699
I51
s(I3926
tp3700
I3
s(I-489
tp3701
I1
s(I2877
tp3702
I2
s(I1123
tp3703
I26
s(I4233
tp3704
I2
s(I74
tp3705
I7393
s(I3121
tp3706
I3
s(I-14
tp3707
I21639
s(I2072
tp3708
I8
s(I1358
tp3709
I22
s(I309
tp3710
I395
s(I3356
tp3711
I4
s(I1602
tp3712
I9
s(I2307
tp3713
I10
s(I553
tp3714
I117
s(I3600
tp3715
I2
s(I2567
tp3716
I7
s(I1837
tp3717
I3
s(I4179
tp3718
I2
s(I788
tp3719
I49
s(I4091
tp3720
I1
s(I-324
tp3721
I1
s(I3042
tp3722
I3
s(I1032
tp3723
I20
s(I4414
tp3724
I1
s(I255
tp3725
I563
s(I-89
tp3726
I115
s(I2253
tp3727
I6
s(I1523
tp3728
I11
s(I474
tp3729
I171
s(I1783
tp3730
I16
s(I4893
tp3731
I1
s(I2472
tp3732
I6
s(I734
tp3733
I73
s(I3781
tp3734
I3
s(I5137
tp3735
I1
s(I2732
tp3736
I1
s(I2002
tp3737
I9
s(I953
tp3738
I37
s(I4000
tp3739
I1
s(I-159
tp3740
I16
s(I2967
tp3741
I3
s(I1213
tp3742
I17
s(I4579
tp3743
I2
s(I164
tp3744
I1423
s(I2418
tp3745
I4
s(I1432
tp3746
I18
s(I399
tp3747
I211
s(I2678
tp3748
I1
s(I1692
tp3749
I4
s(I643
tp3750
I77
s(I3946
tp3751
I3
s(I5318
tp3752
I1
s(I2897
tp3753
I4
s(I1927
tp3754
I9
s(I4269
tp3755
I1
s(I110
tp3756
I3211
s(I3157
tp3757
I4
s(I-234
tp3758
I5
s(I2108
tp3759
I7
s(I1378
tp3760
I19
s(I329
tp3761
I353
s(I3376
tp3762
I3
s(I1638
tp3763
I13
s(I2343
tp3764
I4
s(I589
tp3765
I101
s(I3636
tp3766
I1
s(I1857
tp3767
I13
s(I4215
tp3768
I3
s(I808
tp3769
I33
s(I3871
tp3770
I4
s(I-304
tp3771
I4
s(I5483
tp3772
I1
s(I2822
tp3773
I1
s(I1068
tp3774
I23
s(I4434
tp3775
I1
s(I19
tp3776
I121112
s(I3322
tp3777
I2
s(I-69
tp3778
I289
s(I4694
tp3779
I1
s(I2273
tp3780
I9
s(I1303
tp3781
I21
s(I510
tp3782
I165
s(I3557
tp3783
I1
s(I1547
tp3784
I10
s(I2508
tp3785
I5
s(I754
tp3786
I59
s(I2752
tp3787
I2
s(I2038
tp3788
I10
s(I4124
tp3789
I1
s(I989
tp3790
I44
s(I4036
tp3791
I1
s(I-379
tp3792
I1
s(I2987
tp3793
I4
s(I1233
tp3794
I33
s(I4359
tp3795
I3
s(I184
tp3796
I1128
s(I3247
tp3797
I2
s(I2198
tp3798
I8
s(I1468
tp3799
I12
s(I419
tp3800
I184
s(I3466
tp3801
I4
s(I1712
tp3802
I13
s(I679
tp3803
I75
s(I3726
tp3804
I2
s(I2933
tp3805
I2
s(I1947
tp3806
I9
s(I4289
tp3807
I2
s(I898
tp3808
I48
s(I3177
tp3809
I3
s(I-214
tp3810
I4
s(I2128
tp3811
I6
s(I1158
tp3812
I20
s(I365
tp3813
I260
s(I3412
tp3814
I1
s(I1658
tp3815
I10
s(I2363
tp3816
I2
s(I609
tp3817
I81
s(I3656
tp3818
I2
s(I2623
tp3819
I7
s(I1893
tp3820
I6
s(I844
tp3821
I41
s(I3891
tp3822
I4
s(I-268
tp3823
I3
s(I2842
tp3824
I2
s(I1088
tp3825
I24
s(I4470
tp3826
I1
s(I55
tp3827
I13927
s(I3102
tp3828
I1
s(I-33
tp3829
I2453
s(I2053
tp3830
I7
s(I1323
tp3831
I15
s(I274
tp3832
I501
s(I3577
tp3833
I3
s(I1583
tp3834
I9
s(I2528
tp3835
I3
s(I534
tp3836
I130
s(I3837
tp3837
I3
s(I5193
tp3838
I1
s(I2788
tp3839
I6
s(I1802
tp3840
I11
s(I4144
tp3841
I2
s(I1009
tp3842
I31
s(I3023
tp3843
I4
s(I1269
tp3844
I19
s(I4379
tp3845
I2
s(I220
tp3846
I759
s(I3267
tp3847
I1
s(I-124
tp3848
I41
s(I2218
tp3849
I8
s(I1488
tp3850
I8
s(I455
tp3851
I163
s(I3502
tp3852
I1
s(I1748
tp3853
I7
s(I2453
tp3854
I4
s(I699
tp3855
I77
s(I3746
tp3856
I3
s(I5374
tp3857
I2
s(I2697
tp3858
I4
s(I1983
tp3859
I7
s(I4325
tp3860
I3
s(I934
tp3861
I47
s(I-178
tp3862
I12
s(I2164
tp3863
I12
s(I1178
tp3864
I22
s(I129
tp3865
I2331
s(I3432
tp3866
I1
s(I2399
tp3867
I4
s(I1413
tp3868
I14
s(I3692
tp3869
I1
s(I2643
tp3870
I3
s(I1913
tp3871
I9
s(I864
tp3872
I37
s(I3927
tp3873
I2
s(I-504
tp3874
I1
s(I2878
tp3875
I2
s(I1124
tp3876
I22
s(I4234
tp3877
I1
s(I75
tp3878
I7211
s(I3122
tp3879
I4
s(I-13
tp3880
I25369
s(I2073
tp3881
I8
s(I1359
tp3882
I18
s(I310
tp3883
I379
s(I5762
tp3884
I1
s(I3357
tp3885
I2
s(I1603
tp3886
I9
s(I2308
tp3887
I7
s(I554
tp3888
I120
s(I2808
tp3889
I2
s(I1838
tp3890
I8
s(I789
tp3891
I60
s(I4092
tp3892
I1
s(I3043
tp3893
I3
s(I1033
tp3894
I28
s(I4415
tp3895
I1
s(I240
tp3896
I636
s(I3303
tp3897
I1
s(I-104
tp3898
I63
s(I2254
tp3899
I9
s(I1524
tp3900
I9
s(I475
tp3901
I159
s(I3522
tp3902
I6
s(I1768
tp3903
I9
s(I4894
tp3904
I1
s(I2473
tp3905
I7
s(I735
tp3906
I56
s(I3782
tp3907
I3
s(I2733
tp3908
I4
s(I2003
tp3909
I12
s(I4345
tp3910
I1
s(I954
tp3911
I29
s(I4001
tp3912
I1
s(I-158
tp3913
I16
s(I2952
tp3914
I2
s(I1214
tp3915
I19
s(I165
tp3916
I1562
s(I2419
tp3917
I8
s(I1433
tp3918
I15
s(I384
tp3919
I229
s(I2679
tp3920
I3
s(I1693
tp3921
I13
s(I644
tp3922
I107
s(I3947
tp3923
I1
s(I2898
tp3924
I5
s(I1144
tp3925
I29
s(I111
tp3926
I3242
s(I3158
tp3927
I2
s(I-233
tp3928
I3
s(I2109
tp3929
I6
s(I1379
tp3930
I14
s(I4489
tp3931
I1
s(I330
tp3932
I312
s(I1639
tp3933
I19
s(I2328
tp3934
I4
s(I590
tp3935
I103
s(I3637
tp3936
I2
s(I2588
tp3937
I6
s(I1858
tp3938
I9
s(I4200
tp3939
I3
s(I809
tp3940
I53
s(I3856
tp3941
I1
s(I2823
tp3942
I3
s(I1069
tp3943
I28
s(I4435
tp3944
I1
s(I20
tp3945
I109288
s(I3323
tp3946
I3
s(I-68
tp3947
I269
s(I4695
tp3948
I2
s(I2274
tp3949
I3
s(I1288
tp3950
I24
s(I511
tp3951
I146
s(I3558
tp3952
I1
s(I1548
tp3953
I12
s(I2509
tp3954
I5
s(I755
tp3955
I49
s(I2753
tp3956
I7
s(I2039
tp3957
I9
s(I4125
tp3958
I1
s(I990
tp3959
I33
s(I4037
tp3960
I1
s(I5393
tp3961
I1
s(I2988
tp3962
I2
s(I1234
tp3963
I17
s(I4600
tp3964
I1
s(I185
tp3965
I1092
s(I3232
tp3966
I4
s(I4860
tp3967
I1
s(I2199
tp3968
I5
s(I1469
tp3969
I12
s(I420
tp3970
I215
s(I3467
tp3971
I4
s(I1713
tp3972
I11
s(I5095
tp3973
I1
s(I664
tp3974
I82
s(I3727
tp3975
I3
s(I2934
tp3976
I4
s(I1948
tp3977
I9
s(I4290
tp3978
I1
s(I899
tp3979
I44
s(I3178
tp3980
I4
s(I-213
tp3981
I3
s(I2129
tp3982
I6
s(I1159
tp3983
I24
s(I4525
tp3984
I3
s(I366
tp3985
I263
s(I1659
tp3986
I10
s(I2364
tp3987
I3
s(I610
tp3988
I99
s(I3657
tp3989
I2
s(I2608
tp3990
I7
s(I1894
tp3991
I7
s(I5004
tp3992
I1
s(I845
tp3993
I42
s(I-267
tp3994
I1
s(I2843
tp3995
I4
s(I1089
tp3996
I32
s(I4471
tp3997
I1
s(I40
tp3998
I26593
s(I3103
tp3999
I5
s(I-48
tp4000
I782
s(I2054
tp4001
I2
s(I1324
tp4002
I25
s(I275
tp4003
I481
s(I6713
tp4004
I1
s(I3578
tp4005
I1
s(I1568
tp4006
I12
s(I2529
tp4007
I4
s(I535
tp4008
I110
s(I3838
tp4009
I3
s(I2789
tp4010
I4
s(I1803
tp4011
I6
s(I4145
tp4012
I2
s(I1010
tp4013
I27
s(I4057
tp4014
I1
s(I-358
tp4015
I1
s(I3008
tp4016
I5
s(I1270
tp4017
I17
s(I221
tp4018
I789
s(I5673
tp4019
I1
s(I-123
tp4020
I44
s(I2219
tp4021
I7
s(I1489
tp4022
I18
s(I440
tp4023
I176
s(I3503
tp4024
I3
s(I1749
tp4025
I8
s(I2454
tp4026
I5
s(I700
tp4027
I69
s(I3747
tp4028
I1
s(I-412
tp4029
I1
s(I2698
tp4030
I1
s(I1968
tp4031
I6
s(I935
tp4032
I29
s(I3982
tp4033
I5
s(I-177
tp4034
I8
s(I2165
tp4035
I5
s(I1179
tp4036
I21
s(I130
tp4037
I2325
s(I3433
tp4038
I1
s(I4805
tp4039
I2
s(I2384
tp4040
I8
s(I1414
tp4041
I12
s(I3693
tp4042
I2
s(I2644
tp4043
I7
s(I1914
tp4044
I5
s(I865
tp4045
I44
s(I2879
tp4046
I6
s(I1125
tp4047
I25
s(I4235
tp4048
I1
s(I76
tp4049
I7150
s(I3123
tp4050
I3
s(I-12
tp4051
I30114
s(I2074
tp4052
I6
s(I1344
tp4053
I31
s(I311
tp4054
I408
s(I1604
tp4055
I11
s(I2309
tp4056
I6
s(I555
tp4057
I112
s(I3602
tp4058
I1
s(I2809
tp4059
I3
s(I1839
tp4060
I8
s(I4181
tp4061
I1
s(I790
tp4062
I61
s(I-322
tp4063
I2
s(I3044
tp4064
I2
s(I1034
tp4065
I29
s(I241
tp4066
I655
s(I3288
tp4067
I1
s(I-103
tp4068
I89
s(I4660
tp4069
I3
s(I2255
tp4070
I5
s(I1525
tp4071
I14
s(I476
tp4072
I143
s(I3523
tp4073
I2
s(I1769
tp4074
I10
s(I4895
tp4075
I1
s(I2474
tp4076
I2
s(I720
tp4077
I64
s(I3783
tp4078
I1
s(I5139
tp4079
I1
s(I2734
tp4080
I2
s(I2004
tp4081
I6
s(I-1425
tp4082
I1
s(I955
tp4083
I39
s(I-157
tp4084
I18
s(I2953
tp4085
I7
s(I1215
tp4086
I22
s(I166
tp4087
I1400
s(I3213
tp4088
I2
s(I2420
tp4089
I6
s(I1434
tp4090
I11
s(I385
tp4091
I237
s(I2664
tp4092
I2
s(I1694
tp4093
I8
s(I645
tp4094
I80
s(I3948
tp4095
I2
s(I-467
tp4096
I1
s(I2899
tp4097
I5
s(I1145
tp4098
I21
s(I96
tp4099
I4288
s(I3159
tp4100
I1
s(I-248
tp4101
I4
s(I2110
tp4102
I12
s(I1380
tp4103
I15
s(I4490
tp4104
I2
s(I331
tp4105
I332
s(I3378
tp4106
I1
s(I1624
tp4107
I12
s(I4750
tp4108
I2
s(I2329
tp4109
I6
s(I591
tp4110
I112
s(I3638
tp4111
I2
s(I2589
tp4112
I6
s(I1859
tp4113
I10
s(I4201
tp4114
I1
s(I810
tp4115
I57
s(I3857
tp4116
I1
s(I3064
tp4117
I2
s(I1070
tp4118
I24
s(I4436
tp4119
I1
s(I21
tp4120
I98536
s(I3324
tp4121
I1
s(I-67
tp4122
I271
s(I4680
tp4123
I1
s(I2275
tp4124
I5
s(I1289
tp4125
I18
s(I496
tp4126
I160
s(I3559
tp4127
I2
s(I1549
tp4128
I19
s(I4915
tp4129
I1
s(I2510
tp4130
I3
s(I756
tp4131
I54
s(I3803
tp4132
I2
s(I2754
tp4133
I5
s(I2024
tp4134
I6
s(I991
tp4135
I34
s(I4038
tp4136
I2
s(I2989
tp4137
I3
s(I1235
tp4138
I21
s(I4601
tp4139
I1
s(I186
tp4140
I1179
s(I3233
tp4141
I2
s(I2184
tp4142
I5
s(I1470
tp4143
I13
s(I421
tp4144
I192
s(I1714
tp4145
I11
s(I5080
tp4146
I1
s(I665
tp4147
I66
s(I2935
tp4148
I4
s(I1949
tp4149
I6
s(I4291
tp4150
I1
s(I900
tp4151
I44
s(I3179
tp4152
I2
s(I-212
tp4153
I6
s(I2130
tp4154
I7
s(I1400
tp4155
I9
s(I4526
tp4156
I1
s(I367
tp4157
I258
s(I3414
tp4158
I4
s(I1660
tp4159
I15
s(I2365
tp4160
I6
s(I611
tp4161
I85
s(I3658
tp4162
I3
s(I2609
tp4163
I3
s(I1895
tp4164
I11
s(I846
tp4165
I62
s(I3893
tp4166
I2
s(I-266
tp4167
I4
s(I2844
tp4168
I3
s(I1090
tp4169
I25
s(I4456
tp4170
I3
s(I41
tp4171
I25214
s(I3088
tp4172
I1
s(I-47
tp4173
I911
s(I2055
tp4174
I10
s(I1325
tp4175
I13
s(I276
tp4176
I475
s(I3579
tp4177
I3
s(I1569
tp4178
I14
s(I2530
tp4179
I2
s(I520
tp4180
I130
s(I3839
tp4181
I1
s(I2790
tp4182
I5
s(I1804
tp4183
I9
s(I4146
tp4184
I1
s(I1011
tp4185
I31
s(I4058
tp4186
I1
s(I3009
tp4187
I3
s(I1271
tp4188
I17
s(I4381
tp4189
I1
s(I222
tp4190
I783
s(I3269
tp4191
I2
s(I-122
tp4192
I33
s(I4625
tp4193
I1
s(I2220
tp4194
I5
s(I1490
tp4195
I16
s(I441
tp4196
I169
s(I3488
tp4197
I3
s(I1750
tp4198
I6
s(I5116
tp4199
I2
s(I2455
tp4200
I5
s(I701
tp4201
I59
s(I3748
tp4202
I3
s(I2699
tp4203
I3
s(I1969
tp4204
I4
s(I4327
tp4205
I1
s(I920
tp4206
I40
s(I3983
tp4207
I2
s(I-192
tp4208
I4
s(I2166
tp4209
I3
s(I1180
tp4210
I27
s(I131
tp4211
I2336
s(I3434
tp4212
I2
s(I4806
tp4213
I1
s(I2385
tp4214
I5
s(I1415
tp4215
I13
s(I3694
tp4216
I3
s(I2645
tp4217
I6
s(I1915
tp4218
I4
s(I866
tp4219
I39
s(I3913
tp4220
I1
s(I-502
tp4221
I3
s(I5285
tp4222
I1
s(I2864
tp4223
I6
s(I1126
tp4224
I20
s(I4236
tp4225
I1
s(I77
tp4226
I6920
s(I3124
tp4227
I3
s(I-11
tp4228
I36627
s(I2075
tp4229
I3
s(I1345
tp4230
I15
s(I296
tp4231
I407
s(I3359
tp4232
I1
s(I1605
tp4233
I15
s(I4971
tp4234
I1
s(I2310
tp4235
I3
s(I556
tp4236
I114
s(I3603
tp4237
I1
s(I2810
tp4238
I3
s(I1824
tp4239
I12
s(I4182
tp4240
I1
s(I791
tp4241
I62
s(I4094
tp4242
I1
s(I-321
tp4243
I1
s(I3045
tp4244
I4
s(I1035
tp4245
I33
s(I4401
tp4246
I1
s(I242
tp4247
I639
s(I5710
tp4248
I1
s(I3289
tp4249
I3
s(I-102
tp4250
I62
s(I2240
tp4251
I8
s(I1526
tp4252
I7
s(I477
tp4253
I161
s(I3524
tp4254
I5
s(I1770
tp4255
I11
s(I2475
tp4256
I6
s(I721
tp4257
I70
s(I3768
tp4258
I2
s(I-391
tp4259
I1
s(I2735
tp4260
I4
s(I2005
tp4261
I5
s(I4347
tp4262
I3
s(I956
tp4263
I33
s(I-156
tp4264
I21
s(I2954
tp4265
I6
s(I1200
tp4266
I22
s(I167
tp4267
I1359
s(I3214
tp4268
I2
s(I2421
tp4269
I2
s(I1435
tp4270
I18
s(I386
tp4271
I236
s(I1695
tp4272
I6
s(I5061
tp4273
I2
s(I646
tp4274
I72
s(I2900
tp4275
I5
s(I1146
tp4276
I23
s(I4256
tp4277
I1
s(I97
tp4278
I4193
s(I3144
tp4279
I2
s(I-247
tp4280
I1
s(I2111
tp4281
I3
s(I1381
tp4282
I14
s(I332
tp4283
I346
s(I3379
tp4284
I4
s(I1625
tp4285
I11
s(I4751
tp4286
I1
s(I2330
tp4287
I6
s(I576
tp4288
I108
s(I3639
tp4289
I2
s(I2590
tp4290
I5
s(I1860
tp4291
I11
s(I811
tp4292
I51
s(I-301
tp4293
I6
s(I3065
tp4294
I4
s(I1071
tp4295
I23
s(I4437
tp4296
I1
s(I22
tp4297
I90713
s(I-66
tp4298
I319
s(I4681
tp4299
I1
s(I2276
tp4300
I6
s(I1290
tp4301
I31
s(I497
tp4302
I120
s(I3544
tp4303
I4
s(I1550
tp4304
I11
s(I4916
tp4305
I1
s(I2511
tp4306
I8
s(I757
tp4307
I66
s(I3804
tp4308
I3
s(I2755
tp4309
I5
s(I2025
tp4310
I6
s(I4127
tp4311
I4
s(I976
tp4312
I27
s(I-136
tp4313
I30
s(I2990
tp4314
I4
s(I1236
tp4315
I31
s(I4602
tp4316
I1
s(I187
tp4317
I1093
s(I3234
tp4318
I1
s(I4862
tp4319
I2
s(I2185
tp4320
I4
s(I1471
tp4321
I12
s(I422
tp4322
I175
s(I3469
tp4323
I3
s(I1715
tp4324
I12
s(I666
tp4325
I64
s(I3713
tp4326
I1
s(I-446
tp4327
I1
s(I2920
tp4328
I4
s(I1950
tp4329
I7
s(I4292
tp4330
I4
s(I901
tp4331
I46
s(I3180
tp4332
I2
s(I-211
tp4333
I2
s(I2131
tp4334
I6
s(I1401
tp4335
I25
s(I4527
tp4336
I2
s(I352
tp4337
I289
s(I3415
tp4338
I1
s(I1661
tp4339
I5
s(I2366
tp4340
I3
s(I612
tp4341
I86
s(I3659
tp4342
I2
s(I2610
tp4343
I10
s(I1880
tp4344
I7
s(I847
tp4345
I53
s(I3894
tp4346
I1
s(I-265
tp4347
I2
s(I2845
tp4348
I6
s(I1091
tp4349
I24
s(I4457
tp4350
I1
s(I42
tp4351
I23774
s(I3089
tp4352
I4
s(I-46
tp4353
I988
s(I2296
tp4354
I1
s(I1326
tp4355
I12
s(I277
tp4356
I476
s(I3580
tp4357
I2
s(I1570
tp4358
I14
s(I4936
tp4359
I1
s(I2531
tp4360
I6
s(I521
tp4361
I124
s(I3824
tp4362
I3
s(I2791
tp4363
I2
s(I1805
tp4364
I6
s(I4147
tp4365
I2
s(I1012
tp4366
I25
s(I4059
tp4367
I3
s(I-356
tp4368
I1
s(I3010
tp4369
I1
s(I1256
tp4370
I17
s(I4382
tp4371
I2
s(I223
tp4372
I717
s(I3270
tp4373
I3
s(I-121
tp4374
I30
s(I4626
tp4375
I1
s(I2221
tp4376
I2
s(I1491
tp4377
I12
s(I442
tp4378
I185
s(I3489
tp4379
I3
s(I1751
tp4380
I9
s(I5117
tp4381
I1
s(I2440
tp4382
I2
s(I702
tp4383
I76
s(I3749
tp4384
I3
s(I5361
tp4385
I1
s(I2700
tp4386
I3
s(I1970
tp4387
I11
s(I921
tp4388
I29
s(I3968
tp4389
I1
s(I-191
tp4390
I8
s(I2167
tp4391
I2
s(I1181
tp4392
I23
s(I4547
tp4393
I1
s(I132
tp4394
I2214
s(I3435
tp4395
I6
s(I2386
tp4396
I3
s(I632
tp4397
I84
s(I2646
tp4398
I5
s(I1916
tp4399
I3
s(I867
tp4400
I45
s(I2865
tp4401
I2
s(I1127
tp4402
I27
s(I4237
tp4403
I2
s(I78
tp4404
I6710
s(I3125
tp4405
I1
s(I-10
tp4406
I44140
s(I2076
tp4407
I8
s(I1346
tp4408
I20
s(I297
tp4409
I436
s(I3344
tp4410
I3
s(I1606
tp4411
I19
s(I2311
tp4412
I4
s(I557
tp4413
I107
s(I2811
tp4414
I6
s(I1825
tp4415
I9
s(I776
tp4416
I61
s(I4095
tp4417
I1
s(I-336
tp4418
I2
s(I1036
tp4419
I18
s(I4402
tp4420
I3
s(I243
tp4421
I592
s(I3290
tp4422
I3
s(I-101
tp4423
I84
s(I4662
tp4424
I2
s(I2241
tp4425
I5
s(I1527
tp4426
I11
s(I478
tp4427
I133
s(I3525
tp4428
I2
s(I1771
tp4429
I6
s(I4881
tp4430
I2
s(I2476
tp4431
I4
s(I722
tp4432
I65
s(I-390
tp4433
I1
s(I2720
tp4434
I5
s(I2006
tp4435
I5
s(I957
tp4436
I33
s(I4004
tp4437
I1
s(I-155
tp4438
I22
s(I2955
tp4439
I6
s(I1201
tp4440
I24
s(I152
tp4441
I1690
s(I3215
tp4442
I2
s(I4827
tp4443
I2
s(I2422
tp4444
I7
s(I1436
tp4445
I13
s(I387
tp4446
I279
s(I2666
tp4447
I2
s(I1680
tp4448
I5
s(I5062
tp4449
I1
s(I647
tp4450
I93
s(I3950
tp4451
I1
s(I-465
tp4452
I1
s(I2901
tp4453
I1
s(I1147
tp4454
I30
s(I4257
tp4455
I1
s(I98
tp4456
I4034
s(I3145
tp4457
I3
s(I-246
tp4458
I7
s(I2096
tp4459
I4
s(I1382
tp4460
I14
s(I333
tp4461
I341
s(I3380
tp4462
I3
s(I1626
tp4463
I15
s(I4736
tp4464
I1
s(I2331
tp4465
I5
s(I577
tp4466
I108
s(I3624
tp4467
I3
s(I2591
tp4468
I3
s(I1861
tp4469
I10
s(I4203
tp4470
I1
s(I812
tp4471
I47
s(I3859
tp4472
I3
s(I-300
tp4473
I1
s(I3066
tp4474
I1
s(I1056
tp4475
I29
s(I23
tp4476
I81758
s(I3326
tp4477
I2
s(I-65
tp4478
I302
s(I4682
tp4479
I1
s(I2277
tp4480
I7
s(I1291
tp4481
I14
s(I498
tp4482
I136
s(I1551
tp4483
I13
s(I2496
tp4484
I4
s(I758
tp4485
I56
s(I3805
tp4486
I2
s(I2756
tp4487
I3
s(I2026
tp4488
I4
s(I977
tp4489
I38
s(I4024
tp4490
I1
s(I-135
tp4491
I33
s(I2991
tp4492
I2
s(I1237
tp4493
I17
s(I188
tp4494
I1054
s(I3235
tp4495
I6
s(I4863
tp4496
I1
s(I2186
tp4497
I3
s(I1456
tp4498
I15
s(I423
tp4499
I200
s(I3470
tp4500
I1
s(I1716
tp4501
I11
s(I5082
tp4502
I2
s(I667
tp4503
I67
s(I3714
tp4504
I1
s(I5342
tp4505
I1
s(I2921
tp4506
I1
s(I1951
tp4507
I4
s(I4293
tp4508
I3
s(I902
tp4509
I35
s(I-210
tp4510
I7
s(I2132
tp4511
I7
s(I1402
tp4512
I16
s(I353
tp4513
I303
s(I3400
tp4514
I1
s(I1662
tp4515
I13
s(I2367
tp4516
I5
s(I613
tp4517
I84
s(I3660
tp4518
I1
s(I2611
tp4519
I4
s(I1881
tp4520
I9
s(I-524
tp4521
I1
s(I5007
tp4522
I1
s(I832
tp4523
I43
s(I-280
tp4524
I3
s(I2846
tp4525
I3
s(I1092
tp4526
I29
s(I4458
tp4527
I1
s(I43
tp4528
I22746
s(I3090
tp4529
I2
s(I-45
tp4530
I982
s(I4718
tp4531
I1
s(I2297
tp4532
I5
s(I1327
tp4533
I24
s(I278
tp4534
I482
s(I3581
tp4535
I2
s(I1571
tp4536
I13
s(I4937
tp4537
I1
s(I2532
tp4538
I4
s(I522
tp4539
I112
s(I3825
tp4540
I2
s(I2776
tp4541
I2
s(I1806
tp4542
I11
s(I1013
tp4543
I32
s(I4060
tp4544
I2
s(I-355
tp4545
I1
s(I3011
tp4546
I5
s(I1257
tp4547
I9
s(I4383
tp4548
I1
s(I208
tp4549
I916
s(I3271
tp4550
I1
s(I4627
tp4551
I1
s(I2222
tp4552
I4
s(I1492
tp4553
I26
s(I443
tp4554
I172
s(I3490
tp4555
I3
s(I1736
tp4556
I15
s(I2441
tp4557
I7
s(I703
tp4558
I61
s(I3750
tp4559
I1
s(I2701
tp4560
I3
s(I1971
tp4561
I6
s(I922
tp4562
I29
s(I-190
tp4563
I6
s(I2152
tp4564
I3
s(I1182
tp4565
I14
s(I4548
tp4566
I3
s(I133
tp4567
I2260
s(I4792
tp4568
I1
s(I2387
tp4569
I7
s(I633
tp4570
I86
s(I3680
tp4571
I1
s(I2647
tp4572
I5
s(I1917
tp4573
I7
s(I868
tp4574
I43
s(I3915
tp4575
I1
s(I2866
tp4576
I6
s(I1112
tp4577
I20
s(I4238
tp4578
I1
s(I79
tp4579
I6644
s(I3126
tp4580
I3
s(I-9
tp4581
I54537
s(I5506
tp4582
I2
s(I2077
tp4583
I6
s(I1347
tp4584
I24
s(I298
tp4585
I432
s(I6736
tp4586
I1
s(I3345
tp4587
I4
s(I1607
tp4588
I11
s(I2552
tp4589
I2
s(I558
tp4590
I109
s(I3605
tp4591
I1
s(I2812
tp4592
I7
s(I1826
tp4593
I11
s(I777
tp4594
I51
s(I4080
tp4595
I2
s(I-335
tp4596
I2
s(I1037
tp4597
I34
s(I4403
tp4598
I1
s(I244
tp4599
I645
s(I-100
tp4600
I89
s(I2242
tp4601
I7
s(I1512
tp4602
I15
s(I479
tp4603
I174
s(I3526
tp4604
I5
s(I1772
tp4605
I10
s(I4882
tp4606
I2
s(I2477
tp4607
I8
s(I723
tp4608
I64
s(I3770
tp4609
I3
s(I2721
tp4610
I4
s(I2007
tp4611
I6
s(I4349
tp4612
I1
s(I958
tp4613
I30
s(I4005
tp4614
I2
s(I-154
tp4615
I19
s(I2956
tp4616
I5
s(I1202
tp4617
I20
s(I153
tp4618
I1655
s(I3200
tp4619
I2
s(I2423
tp4620
I2
s(I1437
tp4621
I16
s(I388
tp4622
I221
s(I2667
tp4623
I4
s(I1681
tp4624
I9
s(I888
tp4625
I35
s(I3951
tp4626
I2
s(I2902
tp4627
I5
s(I1148
tp4628
I29
s(I99
tp4629
I3903
s(I3146
tp4630
I1
s(I-245
tp4631
I2
s(I2097
tp4632
I5
s(I1383
tp4633
I9
s(I4493
tp4634
I3
s(I334
tp4635
I305
s(I1627
tp4636
I9
s(I4737
tp4637
I1
s(I2332
tp4638
I5
s(I578
tp4639
I107
s(I3625
tp4640
I3
s(I2576
tp4641
I3
s(I1862
tp4642
I9
s(I4204
tp4643
I2
s(I813
tp4644
I62
s(I3860
tp4645
I1
s(I3067
tp4646
I3
s(I1057
tp4647
I36
s(I4439
tp4648
I1
s(I8
tp4649
I697569
s(I3327
tp4650
I2
s(I-80
tp4651
I152
s(I4683
tp4652
I1
s(I2278
tp4653
I3
s(I1292
tp4654
I21
s(I499
tp4655
I121
s(I3546
tp4656
I1
s(I1536
tp4657
I14
s(I2497
tp4658
I6
s(I759
tp4659
I51
s(I3806
tp4660
I4
s(I2757
tp4661
I3
s(I2027
tp4662
I7
s(I-634
tp4663
I1
s(I978
tp4664
I35
s(I4025
tp4665
I1
s(I-134
tp4666
I32
s(I2976
tp4667
I5
s(I1238
tp4668
I21
s(I189
tp4669
I1084
s(I5641
tp4670
I1
s(I3236
tp4671
I3
s(I2187
tp4672
I7
s(I1457
tp4673
I13
s(I408
tp4674
I215
s(I3471
tp4675
I5
s(I1717
tp4676
I17
s(I668
tp4677
I77
s(I3715
tp4678
I1
s(I-444
tp4679
I1
s(I2922
tp4680
I6
s(I1936
tp4681
I11
s(I903
tp4682
I46
s(I3182
tp4683
I2
s(I-209
tp4684
I5
s(I5562
tp4685
I1
s(I2133
tp4686
I3
s(I1403
tp4687
I20
s(I354
tp4688
I272
s(I3401
tp4689
I1
s(I1663
tp4690
I11
s(I2352
tp4691
I4
s(I614
tp4692
I83
s(I3661
tp4693
I3
s(I2612
tp4694
I3
s(I1882
tp4695
I3
s(I4992
tp4696
I2
s(I833
tp4697
I43
s(I3880
tp4698
I3
s(I-279
tp4699
I3
s(I2847
tp4700
I5
s(I1093
tp4701
I20
s(I4459
tp4702
I1
s(I44
tp4703
I21697
s(I3091
tp4704
I2
s(I-44
tp4705
I1047
s(I2298
tp4706
I3
s(I1312
tp4707
I21
s(I279
tp4708
I449
s(I3582
tp4709
I2
s(I1572
tp4710
I13
s(I2533
tp4711
I1
s(I523
tp4712
I143
s(I3826
tp4713
I1
s(I2777
tp4714
I5
s(I1807
tp4715
I2
s(I4149
tp4716
I1
s(I1014
tp4717
I34
s(I3012
tp4718
I2
s(I1258
tp4719
I19
s(I209
tp4720
I900
s(I3256
tp4721
I3
s(I4628
tp4722
I2
s(I2223
tp4723
I6
s(I1493
tp4724
I13
s(I444
tp4725
I182
s(I3491
tp4726
I2
s(I1737
tp4727
I17
s(I2442
tp4728
I1
s(I688
tp4729
I73
s(I3751
tp4730
I1
s(I-424
tp4731
I1
s(I2702
tp4732
I10
s(I1972
tp4733
I9
s(I4314
tp4734
I3
s(I923
tp4735
I41
s(I3970
tp4736
I1
s(I-189
tp4737
I12
s(I2153
tp4738
I3
s(I1183
tp4739
I22
s(I134
tp4740
I2151
s(I3437
tp4741
I3
s(I2388
tp4742
I3
s(I634
tp4743
I86
s(I2632
tp4744
I7
s(I1918
tp4745
I8
s(I869
tp4746
I40
s(I3916
tp4747
I3
s(I-499
tp4748
I1
s(I2867
tp4749
I2
s(I1113
tp4750
I22
s(I4239
tp4751
I1
s(I64
tp4752
I10008
s(I3127
tp4753
I1
s(I-24
tp4754
I5773
s(I2078
tp4755
I3
s(I1348
tp4756
I15
s(I299
tp4757
I395
s(I5767
tp4758
I1
s(I3346
tp4759
I2
s(I1592
tp4760
I13
s(I4974
tp4761
I1
s(I2553
tp4762
I1
s(I559
tp4763
I124
s(I3606
tp4764
I1
s(I2813
tp4765
I4
s(I1827
tp4766
I18
s(I4169
tp4767
I3
s(I778
tp4768
I59
s(I-334
tp4769
I2
s(I3032
tp4770
I6
s(I1038
tp4771
I37
s(I4404
tp4772
I1
s(I245
tp4773
I585
s(I3292
tp4774
I3
s(I-99
tp4775
I86
s(I4648
tp4776
I1
s(I2243
tp4777
I4
s(I1513
tp4778
I11
s(I464
tp4779
I157
s(I3527
tp4780
I1
s(I1773
tp4781
I16
s(I-648
tp4782
I1
s(I4883
tp4783
I2
s(I2478
tp4784
I4
s(I724
tp4785
I52
s(I2722
tp4786
I6
s(I1992
tp4787
I10
s(I4350
tp4788
I3
s(I959
tp4789
I29
s(I4006
tp4790
I1
s(I-153
tp4791
I26
s(I2957
tp4792
I4
s(I1203
tp4793
I29
s(I4569
tp4794
I1
s(I154
tp4795
I1644
s(I3201
tp4796
I1
s(I2408
tp4797
I6
s(I1438
tp4798
I16
s(I389
tp4799
I240
s(I2668
tp4800
I5
s(I1682
tp4801
I8
s(I889
tp4802
I39
s(I3936
tp4803
I3
s(I5308
tp4804
I1
s(I2903
tp4805
I4
s(I1149
tp4806
I30
s(I4259
tp4807
I1
s(I100
tp4808
I3860
s(I3147
tp4809
I1
s(I-244
tp4810
I4
s(I2098
tp4811
I4
s(I1368
tp4812
I20
s(I335
tp4813
I323
s(I3382
tp4814
I1
s(I1628
tp4815
I15
s(I2333
tp4816
I4
s(I579
tp4817
I120
s(I3626
tp4818
I2
s(I2577
tp4819
I4
s(I1863
tp4820
I5
s(I-558
tp4821
I1
s(I4205
tp4822
I1
s(I814
tp4823
I48
s(I3861
tp4824
I2
s(I-298
tp4825
I1
s(I3068
tp4826
I5
s(I1058
tp4827
I32
s(I4424
tp4828
I1
s(I9
tp4829
I548875
s(I-79
tp4830
I179
s(I4684
tp4831
I1
s(I2279
tp4832
I5
s(I1293
tp4833
I19
s(I500
tp4834
I142
s(I3547
tp4835
I3
s(I1537
tp4836
I14
s(I2498
tp4837
I6
s(I744
tp4838
I55
s(I3807
tp4839
I2
s(I2758
tp4840
I3
s(I2028
tp4841
I7
s(I4114
tp4842
I1
s(I979
tp4843
I34
s(I4026
tp4844
I1
s(I-133
tp4845
I17
s(I2977
tp4846
I3
s(I1239
tp4847
I18
s(I190
tp4848
I1089
s(I5642
tp4849
I1
s(I3237
tp4850
I3
s(I2188
tp4851
I8
s(I1458
tp4852
I12
s(I409
tp4853
I233
s(I3456
tp4854
I3
s(I1718
tp4855
I13
s(I-703
tp4856
I1
s(I5084
tp4857
I1
s(I669
tp4858
I68
s(I3716
tp4859
I1
s(I2923
tp4860
I1
s(I1937
tp4861
I9
s(I4295
tp4862
I1
s(I120
tp4863
I2687
s(I3183
tp4864
I3
s(I-224
tp4865
I4
s(I2134
tp4866
I8
s(I1404
tp4867
I10
s(I355
tp4868
I315
s(I3402
tp4869
I4
s(I1648
tp4870
I9
s(I2353
tp4871
I4
s(I615
tp4872
I84
s(I3662
tp4873
I1
s(I2613
tp4874
I3
s(I1883
tp4875
I9
s(I834
tp4876
I32
s(I3881
tp4877
I2
s(I-278
tp4878
I3
s(I2832
tp4879
I3
s(I1094
tp4880
I23
s(I4460
tp4881
I2
s(I45
tp4882
I20686
s(I3092
tp4883
I2
s(I-43
tp4884
I1202
s(I2299
tp4885
I7
s(I1313
tp4886
I27
s(I264
tp4887
I572
s(I1573
tp4888
I18
s(I4939
tp4889
I1
s(I2534
tp4890
I5
s(I524
tp4891
I143
s(I3827
tp4892
I2
s(I2778
tp4893
I4
s(I1792
tp4894
I13
s(I4150
tp4895
I4
s(I1015
tp4896
I33
s(I4062
tp4897
I3
s(I-353
tp4898
I1
s(I3013
tp4899
I2
s(I1259
tp4900
I18
s(I4369
tp4901
I1
s(I210
tp4902
I837
s(I3257
tp4903
I3
s(I4629
tp4904
I2
s(I2208
tp4905
I6
s(I1494
tp4906
I14
s(I445
tp4907
I174
s(I3492
tp4908
I2
s(I1738
tp4909
I7
s(I2443
tp4910
I5
s(I689
tp4911
I57
s(I3736
tp4912
I2
s(I2703
tp4913
I3
s(I1973
tp4914
I10
s(I924
tp4915
I43
s(I-188
tp4916
I10
s(I2154
tp4917
I12
s(I1168
tp4918
I29
s(I4550
tp4919
I1
s(I135
tp4920
I2209
s(I3438
tp4921
I2
s(I2389
tp4922
I2
s(I635
tp4923
I89
s(I3682
tp4924
I2
s(I2633
tp4925
I8
s(I1919
tp4926
I8
s(I870
tp4927
I48
s(I3917
tp4928
I3
s(I2868
tp4929
I2
s(I1114
tp4930
I30
s(I4224
tp4931
I2
s(I65
tp4932
I9779
s(I3112
tp4933
I5
s(I-23
tp4934
I6443
s(I5508
tp4935
I1
s(I2079
tp4936
I6
s(I1349
tp4937
I14
s(I300
tp4938
I413
s(I3347
tp4939
I1
s(I1593
tp4940
I14
s(I-812
tp4941
I1
stp4942
Rp4943
.